
AVRASM ver. 2.1.30  E:\TAM\K\GITHUB\AVR\SIMAT8\Debug\List\V3.asm Tue Oct 24 14:17:02 2017

E:\TAM\K\GITHUB\AVR\SIMAT8\Debug\List\V3.asm(1086): warning: Register r5 already defined by the .DEF directive
E:\TAM\K\GITHUB\AVR\SIMAT8\Debug\List\V3.asm(1087): warning: Register r4 already defined by the .DEF directive
E:\TAM\K\GITHUB\AVR\SIMAT8\Debug\List\V3.asm(1088): warning: Register r7 already defined by the .DEF directive
E:\TAM\K\GITHUB\AVR\SIMAT8\Debug\List\V3.asm(1089): warning: Register r6 already defined by the .DEF directive
E:\TAM\K\GITHUB\AVR\SIMAT8\Debug\List\V3.asm(1090): warning: Register r9 already defined by the .DEF directive
E:\TAM\K\GITHUB\AVR\SIMAT8\Debug\List\V3.asm(1091): warning: Register r8 already defined by the .DEF directive
E:\TAM\K\GITHUB\AVR\SIMAT8\Debug\List\V3.asm(1092): warning: Register r11 already defined by the .DEF directive
E:\TAM\K\GITHUB\AVR\SIMAT8\Debug\List\V3.asm(1093): warning: Register r10 already defined by the .DEF directive
E:\TAM\K\GITHUB\AVR\SIMAT8\Debug\List\V3.asm(1094): warning: Register r13 already defined by the .DEF directive
E:\TAM\K\GITHUB\AVR\SIMAT8\Debug\List\V3.asm(1095): warning: Register r12 already defined by the .DEF directive
                 
                 
                 ;CodeVisionAVR C Compiler V3.12 Advanced
                 ;(C) Copyright 1998-2014 Pavel Haiduc, HP InfoTech s.r.l.
                 ;http://www.hpinfotech.com
                 
                 ;Build configuration    : Debug
                 ;Chip type              : ATmega8
                 ;Program type           : Application
                 ;Clock frequency        : 1.000000 MHz
                 ;Memory model           : Small
                 ;Optimize for           : Size
                 ;(s)printf features     : int
                 ;(s)scanf features      : int, width
                 ;External RAM size      : 0
                 ;Data Stack size        : 256 byte(s)
                 ;Heap size              : 0 byte(s)
                 ;Promote 'char' to 'int': Yes
                 ;'char' is unsigned     : Yes
                 ;8 bit enums            : Yes
                 ;Global 'const' stored in FLASH: Yes
                 ;Enhanced function parameter passing: Yes
                 ;Enhanced core instructions: On
                 ;Automatic register allocation for global variables: On
                 ;Smart register allocation: On
                 
                 	#define _MODEL_SMALL_
                 
                 	#pragma AVRPART ADMIN PART_NAME ATmega8
                 	#pragma AVRPART MEMORY PROG_FLASH 8192
                 	#pragma AVRPART MEMORY EEPROM 512
                 	#pragma AVRPART MEMORY INT_SRAM SIZE 1024
                 	#pragma AVRPART MEMORY INT_SRAM START_ADDR 0x60
                 
                 	.LISTMAC
                 	.EQU UDRE=0x5
                 	.EQU RXC=0x7
                 	.EQU USR=0xB
                 	.EQU UDR=0xC
                 	.EQU SPSR=0xE
                 	.EQU SPDR=0xF
                 	.EQU EERE=0x0
                 	.EQU EEWE=0x1
                 	.EQU EEMWE=0x2
                 	.EQU EECR=0x1C
                 	.EQU EEDR=0x1D
                 	.EQU EEARL=0x1E
                 	.EQU EEARH=0x1F
                 	.EQU WDTCR=0x21
                 	.EQU MCUCR=0x35
                 	.EQU GICR=0x3B
                 	.EQU SPL=0x3D
                 	.EQU SPH=0x3E
                 	.EQU SREG=0x3F
                 
                 	.DEF R0X0=R0
                 	.DEF R0X1=R1
                 	.DEF R0X2=R2
                 	.DEF R0X3=R3
                 	.DEF R0X4=R4
                 	.DEF R0X5=R5
                 	.DEF R0X6=R6
                 	.DEF R0X7=R7
                 	.DEF R0X8=R8
                 	.DEF R0X9=R9
                 	.DEF R0XA=R10
                 	.DEF R0XB=R11
                 	.DEF R0XC=R12
                 	.DEF R0XD=R13
                 	.DEF R0XE=R14
                 	.DEF R0XF=R15
                 	.DEF R0X10=R16
                 	.DEF R0X11=R17
                 	.DEF R0X12=R18
                 	.DEF R0X13=R19
                 	.DEF R0X14=R20
                 	.DEF R0X15=R21
                 	.DEF R0X16=R22
                 	.DEF R0X17=R23
                 	.DEF R0X18=R24
                 	.DEF R0X19=R25
                 	.DEF R0X1A=R26
                 	.DEF R0X1B=R27
                 	.DEF R0X1C=R28
                 	.DEF R0X1D=R29
                 	.DEF R0X1E=R30
                 	.DEF R0X1F=R31
                 
                 	.EQU __SRAM_START=0x0060
                 	.EQU __SRAM_END=0x045F
                 	.EQU __DSTACK_SIZE=0x0100
                 	.EQU __HEAP_SIZE=0x0000
                 	.EQU __CLEAR_SRAM_SIZE=__SRAM_END-__SRAM_START+1
                 
                 	.MACRO __CPD1N
                 	CPI  R30,LOW(@0)
                 	LDI  R26,HIGH(@0)
                 	CPC  R31,R26
                 	LDI  R26,BYTE3(@0)
                 	CPC  R22,R26
                 	LDI  R26,BYTE4(@0)
                 	CPC  R23,R26
                 	.ENDM
                 
                 	.MACRO __CPD2N
                 	CPI  R26,LOW(@0)
                 	LDI  R30,HIGH(@0)
                 	CPC  R27,R30
                 	LDI  R30,BYTE3(@0)
                 	CPC  R24,R30
                 	LDI  R30,BYTE4(@0)
                 	CPC  R25,R30
                 	.ENDM
                 
                 	.MACRO __CPWRR
                 	CP   R@0,R@2
                 	CPC  R@1,R@3
                 	.ENDM
                 
                 	.MACRO __CPWRN
                 	CPI  R@0,LOW(@2)
                 	LDI  R30,HIGH(@2)
                 	CPC  R@1,R30
                 	.ENDM
                 
                 	.MACRO __ADDB1MN
                 	SUBI R30,LOW(-@0-(@1))
                 	.ENDM
                 
                 	.MACRO __ADDB2MN
                 	SUBI R26,LOW(-@0-(@1))
                 	.ENDM
                 
                 	.MACRO __ADDW1MN
                 	SUBI R30,LOW(-@0-(@1))
                 	SBCI R31,HIGH(-@0-(@1))
                 	.ENDM
                 
                 	.MACRO __ADDW2MN
                 	SUBI R26,LOW(-@0-(@1))
                 	SBCI R27,HIGH(-@0-(@1))
                 	.ENDM
                 
                 	.MACRO __ADDW1FN
                 	SUBI R30,LOW(-2*@0-(@1))
                 	SBCI R31,HIGH(-2*@0-(@1))
                 	.ENDM
                 
                 	.MACRO __ADDD1FN
                 	SUBI R30,LOW(-2*@0-(@1))
                 	SBCI R31,HIGH(-2*@0-(@1))
                 	SBCI R22,BYTE3(-2*@0-(@1))
                 	.ENDM
                 
                 	.MACRO __ADDD1N
                 	SUBI R30,LOW(-@0)
                 	SBCI R31,HIGH(-@0)
                 	SBCI R22,BYTE3(-@0)
                 	SBCI R23,BYTE4(-@0)
                 	.ENDM
                 
                 	.MACRO __ADDD2N
                 	SUBI R26,LOW(-@0)
                 	SBCI R27,HIGH(-@0)
                 	SBCI R24,BYTE3(-@0)
                 	SBCI R25,BYTE4(-@0)
                 	.ENDM
                 
                 	.MACRO __SUBD1N
                 	SUBI R30,LOW(@0)
                 	SBCI R31,HIGH(@0)
                 	SBCI R22,BYTE3(@0)
                 	SBCI R23,BYTE4(@0)
                 	.ENDM
                 
                 	.MACRO __SUBD2N
                 	SUBI R26,LOW(@0)
                 	SBCI R27,HIGH(@0)
                 	SBCI R24,BYTE3(@0)
                 	SBCI R25,BYTE4(@0)
                 	.ENDM
                 
                 	.MACRO __ANDBMNN
                 	LDS  R30,@0+(@1)
                 	ANDI R30,LOW(@2)
                 	STS  @0+(@1),R30
                 	.ENDM
                 
                 	.MACRO __ANDWMNN
                 	LDS  R30,@0+(@1)
                 	ANDI R30,LOW(@2)
                 	STS  @0+(@1),R30
                 	LDS  R30,@0+(@1)+1
                 	ANDI R30,HIGH(@2)
                 	STS  @0+(@1)+1,R30
                 	.ENDM
                 
                 	.MACRO __ANDD1N
                 	ANDI R30,LOW(@0)
                 	ANDI R31,HIGH(@0)
                 	ANDI R22,BYTE3(@0)
                 	ANDI R23,BYTE4(@0)
                 	.ENDM
                 
                 	.MACRO __ANDD2N
                 	ANDI R26,LOW(@0)
                 	ANDI R27,HIGH(@0)
                 	ANDI R24,BYTE3(@0)
                 	ANDI R25,BYTE4(@0)
                 	.ENDM
                 
                 	.MACRO __ORBMNN
                 	LDS  R30,@0+(@1)
                 	ORI  R30,LOW(@2)
                 	STS  @0+(@1),R30
                 	.ENDM
                 
                 	.MACRO __ORWMNN
                 	LDS  R30,@0+(@1)
                 	ORI  R30,LOW(@2)
                 	STS  @0+(@1),R30
                 	LDS  R30,@0+(@1)+1
                 	ORI  R30,HIGH(@2)
                 	STS  @0+(@1)+1,R30
                 	.ENDM
                 
                 	.MACRO __ORD1N
                 	ORI  R30,LOW(@0)
                 	ORI  R31,HIGH(@0)
                 	ORI  R22,BYTE3(@0)
                 	ORI  R23,BYTE4(@0)
                 	.ENDM
                 
                 	.MACRO __ORD2N
                 	ORI  R26,LOW(@0)
                 	ORI  R27,HIGH(@0)
                 	ORI  R24,BYTE3(@0)
                 	ORI  R25,BYTE4(@0)
                 	.ENDM
                 
                 	.MACRO __DELAY_USB
                 	LDI  R24,LOW(@0)
                 __DELAY_USB_LOOP:
                 	DEC  R24
                 	BRNE __DELAY_USB_LOOP
                 	.ENDM
                 
                 	.MACRO __DELAY_USW
                 	LDI  R24,LOW(@0)
                 	LDI  R25,HIGH(@0)
                 __DELAY_USW_LOOP:
                 	SBIW R24,1
                 	BRNE __DELAY_USW_LOOP
                 	.ENDM
                 
                 	.MACRO __GETD1S
                 	LDD  R30,Y+@0
                 	LDD  R31,Y+@0+1
                 	LDD  R22,Y+@0+2
                 	LDD  R23,Y+@0+3
                 	.ENDM
                 
                 	.MACRO __GETD2S
                 	LDD  R26,Y+@0
                 	LDD  R27,Y+@0+1
                 	LDD  R24,Y+@0+2
                 	LDD  R25,Y+@0+3
                 	.ENDM
                 
                 	.MACRO __PUTD1S
                 	STD  Y+@0,R30
                 	STD  Y+@0+1,R31
                 	STD  Y+@0+2,R22
                 	STD  Y+@0+3,R23
                 	.ENDM
                 
                 	.MACRO __PUTD2S
                 	STD  Y+@0,R26
                 	STD  Y+@0+1,R27
                 	STD  Y+@0+2,R24
                 	STD  Y+@0+3,R25
                 	.ENDM
                 
                 	.MACRO __PUTDZ2
                 	STD  Z+@0,R26
                 	STD  Z+@0+1,R27
                 	STD  Z+@0+2,R24
                 	STD  Z+@0+3,R25
                 	.ENDM
                 
                 	.MACRO __CLRD1S
                 	STD  Y+@0,R30
                 	STD  Y+@0+1,R30
                 	STD  Y+@0+2,R30
                 	STD  Y+@0+3,R30
                 	.ENDM
                 
                 	.MACRO __POINTB1MN
                 	LDI  R30,LOW(@0+(@1))
                 	.ENDM
                 
                 	.MACRO __POINTW1MN
                 	LDI  R30,LOW(@0+(@1))
                 	LDI  R31,HIGH(@0+(@1))
                 	.ENDM
                 
                 	.MACRO __POINTD1M
                 	LDI  R30,LOW(@0)
                 	LDI  R31,HIGH(@0)
                 	LDI  R22,BYTE3(@0)
                 	LDI  R23,BYTE4(@0)
                 	.ENDM
                 
                 	.MACRO __POINTW1FN
                 	LDI  R30,LOW(2*@0+(@1))
                 	LDI  R31,HIGH(2*@0+(@1))
                 	.ENDM
                 
                 	.MACRO __POINTD1FN
                 	LDI  R30,LOW(2*@0+(@1))
                 	LDI  R31,HIGH(2*@0+(@1))
                 	LDI  R22,BYTE3(2*@0+(@1))
                 	LDI  R23,BYTE4(2*@0+(@1))
                 	.ENDM
                 
                 	.MACRO __POINTB2MN
                 	LDI  R26,LOW(@0+(@1))
                 	.ENDM
                 
                 	.MACRO __POINTW2MN
                 	LDI  R26,LOW(@0+(@1))
                 	LDI  R27,HIGH(@0+(@1))
                 	.ENDM
                 
                 	.MACRO __POINTW2FN
                 	LDI  R26,LOW(2*@0+(@1))
                 	LDI  R27,HIGH(2*@0+(@1))
                 	.ENDM
                 
                 	.MACRO __POINTD2FN
                 	LDI  R26,LOW(2*@0+(@1))
                 	LDI  R27,HIGH(2*@0+(@1))
                 	LDI  R24,BYTE3(2*@0+(@1))
                 	LDI  R25,BYTE4(2*@0+(@1))
                 	.ENDM
                 
                 	.MACRO __POINTBRM
                 	LDI  R@0,LOW(@1)
                 	.ENDM
                 
                 	.MACRO __POINTWRM
                 	LDI  R@0,LOW(@2)
                 	LDI  R@1,HIGH(@2)
                 	.ENDM
                 
                 	.MACRO __POINTBRMN
                 	LDI  R@0,LOW(@1+(@2))
                 	.ENDM
                 
                 	.MACRO __POINTWRMN
                 	LDI  R@0,LOW(@2+(@3))
                 	LDI  R@1,HIGH(@2+(@3))
                 	.ENDM
                 
                 	.MACRO __POINTWRFN
                 	LDI  R@0,LOW(@2*2+(@3))
                 	LDI  R@1,HIGH(@2*2+(@3))
                 	.ENDM
                 
                 	.MACRO __GETD1N
                 	LDI  R30,LOW(@0)
                 	LDI  R31,HIGH(@0)
                 	LDI  R22,BYTE3(@0)
                 	LDI  R23,BYTE4(@0)
                 	.ENDM
                 
                 	.MACRO __GETD2N
                 	LDI  R26,LOW(@0)
                 	LDI  R27,HIGH(@0)
                 	LDI  R24,BYTE3(@0)
                 	LDI  R25,BYTE4(@0)
                 	.ENDM
                 
                 	.MACRO __GETB1MN
                 	LDS  R30,@0+(@1)
                 	.ENDM
                 
                 	.MACRO __GETB1HMN
                 	LDS  R31,@0+(@1)
                 	.ENDM
                 
                 	.MACRO __GETW1MN
                 	LDS  R30,@0+(@1)
                 	LDS  R31,@0+(@1)+1
                 	.ENDM
                 
                 	.MACRO __GETD1MN
                 	LDS  R30,@0+(@1)
                 	LDS  R31,@0+(@1)+1
                 	LDS  R22,@0+(@1)+2
                 	LDS  R23,@0+(@1)+3
                 	.ENDM
                 
                 	.MACRO __GETBRMN
                 	LDS  R@0,@1+(@2)
                 	.ENDM
                 
                 	.MACRO __GETWRMN
                 	LDS  R@0,@2+(@3)
                 	LDS  R@1,@2+(@3)+1
                 	.ENDM
                 
                 	.MACRO __GETWRZ
                 	LDD  R@0,Z+@2
                 	LDD  R@1,Z+@2+1
                 	.ENDM
                 
                 	.MACRO __GETD2Z
                 	LDD  R26,Z+@0
                 	LDD  R27,Z+@0+1
                 	LDD  R24,Z+@0+2
                 	LDD  R25,Z+@0+3
                 	.ENDM
                 
                 	.MACRO __GETB2MN
                 	LDS  R26,@0+(@1)
                 	.ENDM
                 
                 	.MACRO __GETW2MN
                 	LDS  R26,@0+(@1)
                 	LDS  R27,@0+(@1)+1
                 	.ENDM
                 
                 	.MACRO __GETD2MN
                 	LDS  R26,@0+(@1)
                 	LDS  R27,@0+(@1)+1
                 	LDS  R24,@0+(@1)+2
                 	LDS  R25,@0+(@1)+3
                 	.ENDM
                 
                 	.MACRO __PUTB1MN
                 	STS  @0+(@1),R30
                 	.ENDM
                 
                 	.MACRO __PUTW1MN
                 	STS  @0+(@1),R30
                 	STS  @0+(@1)+1,R31
                 	.ENDM
                 
                 	.MACRO __PUTD1MN
                 	STS  @0+(@1),R30
                 	STS  @0+(@1)+1,R31
                 	STS  @0+(@1)+2,R22
                 	STS  @0+(@1)+3,R23
                 	.ENDM
                 
                 	.MACRO __PUTB1EN
                 	LDI  R26,LOW(@0+(@1))
                 	LDI  R27,HIGH(@0+(@1))
                 	RCALL __EEPROMWRB
                 	.ENDM
                 
                 	.MACRO __PUTW1EN
                 	LDI  R26,LOW(@0+(@1))
                 	LDI  R27,HIGH(@0+(@1))
                 	RCALL __EEPROMWRW
                 	.ENDM
                 
                 	.MACRO __PUTD1EN
                 	LDI  R26,LOW(@0+(@1))
                 	LDI  R27,HIGH(@0+(@1))
                 	RCALL __EEPROMWRD
                 	.ENDM
                 
                 	.MACRO __PUTBR0MN
                 	STS  @0+(@1),R0
                 	.ENDM
                 
                 	.MACRO __PUTBMRN
                 	STS  @0+(@1),R@2
                 	.ENDM
                 
                 	.MACRO __PUTWMRN
                 	STS  @0+(@1),R@2
                 	STS  @0+(@1)+1,R@3
                 	.ENDM
                 
                 	.MACRO __PUTBZR
                 	STD  Z+@1,R@0
                 	.ENDM
                 
                 	.MACRO __PUTWZR
                 	STD  Z+@2,R@0
                 	STD  Z+@2+1,R@1
                 	.ENDM
                 
                 	.MACRO __GETW1R
                 	MOV  R30,R@0
                 	MOV  R31,R@1
                 	.ENDM
                 
                 	.MACRO __GETW2R
                 	MOV  R26,R@0
                 	MOV  R27,R@1
                 	.ENDM
                 
                 	.MACRO __GETWRN
                 	LDI  R@0,LOW(@2)
                 	LDI  R@1,HIGH(@2)
                 	.ENDM
                 
                 	.MACRO __PUTW1R
                 	MOV  R@0,R30
                 	MOV  R@1,R31
                 	.ENDM
                 
                 	.MACRO __PUTW2R
                 	MOV  R@0,R26
                 	MOV  R@1,R27
                 	.ENDM
                 
                 	.MACRO __ADDWRN
                 	SUBI R@0,LOW(-@2)
                 	SBCI R@1,HIGH(-@2)
                 	.ENDM
                 
                 	.MACRO __ADDWRR
                 	ADD  R@0,R@2
                 	ADC  R@1,R@3
                 	.ENDM
                 
                 	.MACRO __SUBWRN
                 	SUBI R@0,LOW(@2)
                 	SBCI R@1,HIGH(@2)
                 	.ENDM
                 
                 	.MACRO __SUBWRR
                 	SUB  R@0,R@2
                 	SBC  R@1,R@3
                 	.ENDM
                 
                 	.MACRO __ANDWRN
                 	ANDI R@0,LOW(@2)
                 	ANDI R@1,HIGH(@2)
                 	.ENDM
                 
                 	.MACRO __ANDWRR
                 	AND  R@0,R@2
                 	AND  R@1,R@3
                 	.ENDM
                 
                 	.MACRO __ORWRN
                 	ORI  R@0,LOW(@2)
                 	ORI  R@1,HIGH(@2)
                 	.ENDM
                 
                 	.MACRO __ORWRR
                 	OR   R@0,R@2
                 	OR   R@1,R@3
                 	.ENDM
                 
                 	.MACRO __EORWRR
                 	EOR  R@0,R@2
                 	EOR  R@1,R@3
                 	.ENDM
                 
                 	.MACRO __GETWRS
                 	LDD  R@0,Y+@2
                 	LDD  R@1,Y+@2+1
                 	.ENDM
                 
                 	.MACRO __PUTBSR
                 	STD  Y+@1,R@0
                 	.ENDM
                 
                 	.MACRO __PUTWSR
                 	STD  Y+@2,R@0
                 	STD  Y+@2+1,R@1
                 	.ENDM
                 
                 	.MACRO __MOVEWRR
                 	MOV  R@0,R@2
                 	MOV  R@1,R@3
                 	.ENDM
                 
                 	.MACRO __INWR
                 	IN   R@0,@2
                 	IN   R@1,@2+1
                 	.ENDM
                 
                 	.MACRO __OUTWR
                 	OUT  @2+1,R@1
                 	OUT  @2,R@0
                 	.ENDM
                 
                 	.MACRO __CALL1MN
                 	LDS  R30,@0+(@1)
                 	LDS  R31,@0+(@1)+1
                 	ICALL
                 	.ENDM
                 
                 	.MACRO __CALL1FN
                 	LDI  R30,LOW(2*@0+(@1))
                 	LDI  R31,HIGH(2*@0+(@1))
                 	RCALL __GETW1PF
                 	ICALL
                 	.ENDM
                 
                 	.MACRO __CALL2EN
                 	PUSH R26
                 	PUSH R27
                 	LDI  R26,LOW(@0+(@1))
                 	LDI  R27,HIGH(@0+(@1))
                 	RCALL __EEPROMRDW
                 	POP  R27
                 	POP  R26
                 	ICALL
                 	.ENDM
                 
                 	.MACRO __CALL2EX
                 	SUBI R26,LOW(-@0)
                 	SBCI R27,HIGH(-@0)
                 	RCALL __EEPROMRDD
                 	ICALL
                 	.ENDM
                 
                 	.MACRO __GETW1STACK
                 	IN   R30,SPL
                 	IN   R31,SPH
                 	ADIW R30,@0+1
                 	LD   R0,Z+
                 	LD   R31,Z
                 	MOV  R30,R0
                 	.ENDM
                 
                 	.MACRO __GETD1STACK
                 	IN   R30,SPL
                 	IN   R31,SPH
                 	ADIW R30,@0+1
                 	LD   R0,Z+
                 	LD   R1,Z+
                 	LD   R22,Z
                 	MOVW R30,R0
                 	.ENDM
                 
                 	.MACRO __NBST
                 	BST  R@0,@1
                 	IN   R30,SREG
                 	LDI  R31,0x40
                 	EOR  R30,R31
                 	OUT  SREG,R30
                 	.ENDM
                 
                 
                 	.MACRO __PUTB1SN
                 	LDD  R26,Y+@0
                 	LDD  R27,Y+@0+1
                 	SUBI R26,LOW(-@1)
                 	SBCI R27,HIGH(-@1)
                 	ST   X,R30
                 	.ENDM
                 
                 	.MACRO __PUTW1SN
                 	LDD  R26,Y+@0
                 	LDD  R27,Y+@0+1
                 	SUBI R26,LOW(-@1)
                 	SBCI R27,HIGH(-@1)
                 	ST   X+,R30
                 	ST   X,R31
                 	.ENDM
                 
                 	.MACRO __PUTD1SN
                 	LDD  R26,Y+@0
                 	LDD  R27,Y+@0+1
                 	SUBI R26,LOW(-@1)
                 	SBCI R27,HIGH(-@1)
                 	RCALL __PUTDP1
                 	.ENDM
                 
                 	.MACRO __PUTB1SNS
                 	LDD  R26,Y+@0
                 	LDD  R27,Y+@0+1
                 	ADIW R26,@1
                 	ST   X,R30
                 	.ENDM
                 
                 	.MACRO __PUTW1SNS
                 	LDD  R26,Y+@0
                 	LDD  R27,Y+@0+1
                 	ADIW R26,@1
                 	ST   X+,R30
                 	ST   X,R31
                 	.ENDM
                 
                 	.MACRO __PUTD1SNS
                 	LDD  R26,Y+@0
                 	LDD  R27,Y+@0+1
                 	ADIW R26,@1
                 	RCALL __PUTDP1
                 	.ENDM
                 
                 	.MACRO __PUTB1PMN
                 	LDS  R26,@0
                 	LDS  R27,@0+1
                 	SUBI R26,LOW(-@1)
                 	SBCI R27,HIGH(-@1)
                 	ST   X,R30
                 	.ENDM
                 
                 	.MACRO __PUTW1PMN
                 	LDS  R26,@0
                 	LDS  R27,@0+1
                 	SUBI R26,LOW(-@1)
                 	SBCI R27,HIGH(-@1)
                 	ST   X+,R30
                 	ST   X,R31
                 	.ENDM
                 
                 	.MACRO __PUTD1PMN
                 	LDS  R26,@0
                 	LDS  R27,@0+1
                 	SUBI R26,LOW(-@1)
                 	SBCI R27,HIGH(-@1)
                 	RCALL __PUTDP1
                 	.ENDM
                 
                 	.MACRO __PUTB1PMNS
                 	LDS  R26,@0
                 	LDS  R27,@0+1
                 	ADIW R26,@1
                 	ST   X,R30
                 	.ENDM
                 
                 	.MACRO __PUTW1PMNS
                 	LDS  R26,@0
                 	LDS  R27,@0+1
                 	ADIW R26,@1
                 	ST   X+,R30
                 	ST   X,R31
                 	.ENDM
                 
                 	.MACRO __PUTD1PMNS
                 	LDS  R26,@0
                 	LDS  R27,@0+1
                 	ADIW R26,@1
                 	RCALL __PUTDP1
                 	.ENDM
                 
                 	.MACRO __PUTB1RN
                 	MOVW R26,R@0
                 	SUBI R26,LOW(-@1)
                 	SBCI R27,HIGH(-@1)
                 	ST   X,R30
                 	.ENDM
                 
                 	.MACRO __PUTW1RN
                 	MOVW R26,R@0
                 	SUBI R26,LOW(-@1)
                 	SBCI R27,HIGH(-@1)
                 	ST   X+,R30
                 	ST   X,R31
                 	.ENDM
                 
                 	.MACRO __PUTD1RN
                 	MOVW R26,R@0
                 	SUBI R26,LOW(-@1)
                 	SBCI R27,HIGH(-@1)
                 	RCALL __PUTDP1
                 	.ENDM
                 
                 	.MACRO __PUTB1RNS
                 	MOVW R26,R@0
                 	ADIW R26,@1
                 	ST   X,R30
                 	.ENDM
                 
                 	.MACRO __PUTW1RNS
                 	MOVW R26,R@0
                 	ADIW R26,@1
                 	ST   X+,R30
                 	ST   X,R31
                 	.ENDM
                 
                 	.MACRO __PUTD1RNS
                 	MOVW R26,R@0
                 	ADIW R26,@1
                 	RCALL __PUTDP1
                 	.ENDM
                 
                 	.MACRO __PUTB1RON
                 	MOV  R26,R@0
                 	MOV  R27,R@1
                 	SUBI R26,LOW(-@2)
                 	SBCI R27,HIGH(-@2)
                 	ST   X,R30
                 	.ENDM
                 
                 	.MACRO __PUTW1RON
                 	MOV  R26,R@0
                 	MOV  R27,R@1
                 	SUBI R26,LOW(-@2)
                 	SBCI R27,HIGH(-@2)
                 	ST   X+,R30
                 	ST   X,R31
                 	.ENDM
                 
                 	.MACRO __PUTD1RON
                 	MOV  R26,R@0
                 	MOV  R27,R@1
                 	SUBI R26,LOW(-@2)
                 	SBCI R27,HIGH(-@2)
                 	RCALL __PUTDP1
                 	.ENDM
                 
                 	.MACRO __PUTB1RONS
                 	MOV  R26,R@0
                 	MOV  R27,R@1
                 	ADIW R26,@2
                 	ST   X,R30
                 	.ENDM
                 
                 	.MACRO __PUTW1RONS
                 	MOV  R26,R@0
                 	MOV  R27,R@1
                 	ADIW R26,@2
                 	ST   X+,R30
                 	ST   X,R31
                 	.ENDM
                 
                 	.MACRO __PUTD1RONS
                 	MOV  R26,R@0
                 	MOV  R27,R@1
                 	ADIW R26,@2
                 	RCALL __PUTDP1
                 	.ENDM
                 
                 
                 	.MACRO __GETB1SX
                 	MOVW R30,R28
                 	SUBI R30,LOW(-@0)
                 	SBCI R31,HIGH(-@0)
                 	LD   R30,Z
                 	.ENDM
                 
                 	.MACRO __GETB1HSX
                 	MOVW R30,R28
                 	SUBI R30,LOW(-@0)
                 	SBCI R31,HIGH(-@0)
                 	LD   R31,Z
                 	.ENDM
                 
                 	.MACRO __GETW1SX
                 	MOVW R30,R28
                 	SUBI R30,LOW(-@0)
                 	SBCI R31,HIGH(-@0)
                 	LD   R0,Z+
                 	LD   R31,Z
                 	MOV  R30,R0
                 	.ENDM
                 
                 	.MACRO __GETD1SX
                 	MOVW R30,R28
                 	SUBI R30,LOW(-@0)
                 	SBCI R31,HIGH(-@0)
                 	LD   R0,Z+
                 	LD   R1,Z+
                 	LD   R22,Z+
                 	LD   R23,Z
                 	MOVW R30,R0
                 	.ENDM
                 
                 	.MACRO __GETB2SX
                 	MOVW R26,R28
                 	SUBI R26,LOW(-@0)
                 	SBCI R27,HIGH(-@0)
                 	LD   R26,X
                 	.ENDM
                 
                 	.MACRO __GETW2SX
                 	MOVW R26,R28
                 	SUBI R26,LOW(-@0)
                 	SBCI R27,HIGH(-@0)
                 	LD   R0,X+
                 	LD   R27,X
                 	MOV  R26,R0
                 	.ENDM
                 
                 	.MACRO __GETD2SX
                 	MOVW R26,R28
                 	SUBI R26,LOW(-@0)
                 	SBCI R27,HIGH(-@0)
                 	LD   R0,X+
                 	LD   R1,X+
                 	LD   R24,X+
                 	LD   R25,X
                 	MOVW R26,R0
                 	.ENDM
                 
                 	.MACRO __GETBRSX
                 	MOVW R30,R28
                 	SUBI R30,LOW(-@1)
                 	SBCI R31,HIGH(-@1)
                 	LD   R@0,Z
                 	.ENDM
                 
                 	.MACRO __GETWRSX
                 	MOVW R30,R28
                 	SUBI R30,LOW(-@2)
                 	SBCI R31,HIGH(-@2)
                 	LD   R@0,Z+
                 	LD   R@1,Z
                 	.ENDM
                 
                 	.MACRO __GETBRSX2
                 	MOVW R26,R28
                 	SUBI R26,LOW(-@1)
                 	SBCI R27,HIGH(-@1)
                 	LD   R@0,X
                 	.ENDM
                 
                 	.MACRO __GETWRSX2
                 	MOVW R26,R28
                 	SUBI R26,LOW(-@2)
                 	SBCI R27,HIGH(-@2)
                 	LD   R@0,X+
                 	LD   R@1,X
                 	.ENDM
                 
                 	.MACRO __LSLW8SX
                 	MOVW R30,R28
                 	SUBI R30,LOW(-@0)
                 	SBCI R31,HIGH(-@0)
                 	LD   R31,Z
                 	CLR  R30
                 	.ENDM
                 
                 	.MACRO __PUTB1SX
                 	MOVW R26,R28
                 	SUBI R26,LOW(-@0)
                 	SBCI R27,HIGH(-@0)
                 	ST   X,R30
                 	.ENDM
                 
                 	.MACRO __PUTW1SX
                 	MOVW R26,R28
                 	SUBI R26,LOW(-@0)
                 	SBCI R27,HIGH(-@0)
                 	ST   X+,R30
                 	ST   X,R31
                 	.ENDM
                 
                 	.MACRO __PUTD1SX
                 	MOVW R26,R28
                 	SUBI R26,LOW(-@0)
                 	SBCI R27,HIGH(-@0)
                 	ST   X+,R30
                 	ST   X+,R31
                 	ST   X+,R22
                 	ST   X,R23
                 	.ENDM
                 
                 	.MACRO __CLRW1SX
                 	MOVW R26,R28
                 	SUBI R26,LOW(-@0)
                 	SBCI R27,HIGH(-@0)
                 	ST   X+,R30
                 	ST   X,R30
                 	.ENDM
                 
                 	.MACRO __CLRD1SX
                 	MOVW R26,R28
                 	SUBI R26,LOW(-@0)
                 	SBCI R27,HIGH(-@0)
                 	ST   X+,R30
                 	ST   X+,R30
                 	ST   X+,R30
                 	ST   X,R30
                 	.ENDM
                 
                 	.MACRO __PUTB2SX
                 	MOVW R30,R28
                 	SUBI R30,LOW(-@0)
                 	SBCI R31,HIGH(-@0)
                 	ST   Z,R26
                 	.ENDM
                 
                 	.MACRO __PUTW2SX
                 	MOVW R30,R28
                 	SUBI R30,LOW(-@0)
                 	SBCI R31,HIGH(-@0)
                 	ST   Z+,R26
                 	ST   Z,R27
                 	.ENDM
                 
                 	.MACRO __PUTD2SX
                 	MOVW R30,R28
                 	SUBI R30,LOW(-@0)
                 	SBCI R31,HIGH(-@0)
                 	ST   Z+,R26
                 	ST   Z+,R27
                 	ST   Z+,R24
                 	ST   Z,R25
                 	.ENDM
                 
                 	.MACRO __PUTBSRX
                 	MOVW R30,R28
                 	SUBI R30,LOW(-@1)
                 	SBCI R31,HIGH(-@1)
                 	ST   Z,R@0
                 	.ENDM
                 
                 	.MACRO __PUTWSRX
                 	MOVW R30,R28
                 	SUBI R30,LOW(-@2)
                 	SBCI R31,HIGH(-@2)
                 	ST   Z+,R@0
                 	ST   Z,R@1
                 	.ENDM
                 
                 	.MACRO __PUTB1SNX
                 	MOVW R26,R28
                 	SUBI R26,LOW(-@0)
                 	SBCI R27,HIGH(-@0)
                 	LD   R0,X+
                 	LD   R27,X
                 	MOV  R26,R0
                 	SUBI R26,LOW(-@1)
                 	SBCI R27,HIGH(-@1)
                 	ST   X,R30
                 	.ENDM
                 
                 	.MACRO __PUTW1SNX
                 	MOVW R26,R28
                 	SUBI R26,LOW(-@0)
                 	SBCI R27,HIGH(-@0)
                 	LD   R0,X+
                 	LD   R27,X
                 	MOV  R26,R0
                 	SUBI R26,LOW(-@1)
                 	SBCI R27,HIGH(-@1)
                 	ST   X+,R30
                 	ST   X,R31
                 	.ENDM
                 
                 	.MACRO __PUTD1SNX
                 	MOVW R26,R28
                 	SUBI R26,LOW(-@0)
                 	SBCI R27,HIGH(-@0)
                 	LD   R0,X+
                 	LD   R27,X
                 	MOV  R26,R0
                 	SUBI R26,LOW(-@1)
                 	SBCI R27,HIGH(-@1)
                 	ST   X+,R30
                 	ST   X+,R31
                 	ST   X+,R22
                 	ST   X,R23
                 	.ENDM
                 
                 	.MACRO __MULBRR
                 	MULS R@0,R@1
                 	MOVW R30,R0
                 	.ENDM
                 
                 	.MACRO __MULBRRU
                 	MUL  R@0,R@1
                 	MOVW R30,R0
                 	.ENDM
                 
                 	.MACRO __MULBRR0
                 	MULS R@0,R@1
                 	.ENDM
                 
                 	.MACRO __MULBRRU0
                 	MUL  R@0,R@1
                 	.ENDM
                 
                 	.MACRO __MULBNWRU
                 	LDI  R26,@2
                 	MUL  R26,R@0
                 	MOVW R30,R0
                 	MUL  R26,R@1
                 	ADD  R31,R0
                 	.ENDM
                 
                 ;NAME DEFINITIONS FOR GLOBAL VARIABLES ALLOCATED TO REGISTERS
                 	.DEF _qtyNum=R5
                 	.DEF _flag=R4
                 	.DEF _checkpass=R7
                 	.DEF _result=R6
                 	.DEF _rx_wr_index=R9
                 	.DEF _rx_rd_index=R8
                 	.DEF _rx_counter=R11
                 	.DEF _tx_wr_index=R10
                 	.DEF _tx_rd_index=R13
                 	.DEF _tx_counter=R12
                 
                 	.CSEG
                 	.ORG 0x00
                 
                 ;START OF CODE MARKER
                 __START_OF_CODE:
                 
                 ;INTERRUPT VECTORS
000000 c17d      	RJMP __RESET
000001 c1a8      	RJMP _ext_int0_isr
000002 c1b2      	RJMP _ext_int1_isr
000003 cffc      	RJMP 0x00
000004 cffb      	RJMP 0x00
000005 cffa      	RJMP 0x00
000006 cff9      	RJMP 0x00
000007 cff8      	RJMP 0x00
000008 cff7      	RJMP 0x00
000009 cff6      	RJMP 0x00
00000a cff5      	RJMP 0x00
00000b c1c4      	RJMP _usart_rx_isr
00000c cff3      	RJMP 0x00
00000d c1de      	RJMP _usart_tx_isr
00000e cff1      	RJMP 0x00
00000f cff0      	RJMP 0x00
000010 cfef      	RJMP 0x00
000011 cfee      	RJMP 0x00
000012 cfed      	RJMP 0x00
                 
                 _tbl10_G100:
000013 2710
000014 03e8
000015 0064
000016 000a      	.DB  0x10,0x27,0xE8,0x3,0x64,0x0,0xA,0x0
000017 0001      	.DB  0x1,0x0
                 _tbl16_G100:
000018 1000
000019 0100
00001a 0010
00001b 0001      	.DB  0x0,0x10,0x0,0x1,0x10,0x0,0x1,0x0
                 
                 ;REGISTER BIT VARIABLES INITIALIZATION
                 __REG_BIT_VARS:
00001c 0000      	.DW  0x0000
                 
                 ;GLOBAL REGISTER VARIABLES INITIALIZATION
                 __REG_VARS:
00001d 000a
00001e 0000      	.DB  0xA,0x0,0x0,0x0
00001f 0000
000020 0000      	.DB  0x0,0x0,0x0,0x0
E:\TAM\K\GITHUB\AVR\SIMAT8\Debug\List\V3.asm(1138): warning: .cseg .db misalignment - padding zero byte
000021 0000      	.DB  0x0
                 
                 _0x0:
000022 2631
000023 2032
000024 4e4f
000025 3100      	.DB  0x31,0x26,0x32,0x20,0x4F,0x4E,0x0,0x31
000026 4f3a
000027 204e
000028 3a32
000029 464f      	.DB  0x3A,0x4F,0x4E,0x20,0x32,0x3A,0x4F,0x46
00002a 0046
00002b 3a31
00002c 464f
00002d 2046      	.DB  0x46,0x0,0x31,0x3A,0x4F,0x46,0x46,0x20
00002e 3a32
00002f 4e4f
000030 3100
000031 3226      	.DB  0x32,0x3A,0x4F,0x4E,0x0,0x31,0x26,0x32
000032 4f20
000033 4646
000034 4300
000035 494c      	.DB  0x20,0x4F,0x46,0x46,0x0,0x43,0x4C,0x49
000036 0050
000037 4d43
000038 3a54
000039 4300      	.DB  0x50,0x0,0x43,0x4D,0x54,0x3A,0x0,0x43
00003a 5355
00003b 0044
00003c 2e73
00003d 5400      	.DB  0x55,0x53,0x44,0x0,0x73,0x2E,0x0,0x54
00003e 204b
00003f 6f67
000040 0063
000041 614d      	.DB  0x4B,0x20,0x67,0x6F,0x63,0x0,0x4D,0x61
000042 7320
000043 206f
000044 6874
000045 0065      	.DB  0x20,0x73,0x6F,0x20,0x74,0x68,0x65,0x0
000046 6154
000047 2069
000048 686b
000049 616f      	.DB  0x54,0x61,0x69,0x20,0x6B,0x68,0x6F,0x61
00004a 006e
00004b 6974
00004c 656d
00004d 6f20      	.DB  0x6E,0x0,0x74,0x69,0x6D,0x65,0x20,0x6F
00004e 7475
00004f 4100
000050 4854
000051 0a0d      	.DB  0x75,0x74,0x0,0x41,0x54,0x48,0xD,0xA
000052 6d00
000053 7461
000054 6b20
000055 6168      	.DB  0x0,0x6D,0x61,0x74,0x20,0x6B,0x68,0x61
000056 3a75
000057 3020
000058 3030
000059 0030      	.DB  0x75,0x3A,0x20,0x30,0x30,0x30,0x30,0x0
00005a 616d
00005b 2074
00005c 686b
00005d 7561      	.DB  0x6D,0x61,0x74,0x20,0x6B,0x68,0x61,0x75
00005e 7320
00005f 6961
000060 6f00
000061 316e      	.DB  0x20,0x73,0x61,0x69,0x0,0x6F,0x6E,0x31
000062 6f00
000063 326e
000064 6f00
000065 6666      	.DB  0x0,0x6F,0x6E,0x32,0x0,0x6F,0x66,0x66
000066 0031
000067 666f
000068 3266
000069 6f00      	.DB  0x31,0x0,0x6F,0x66,0x66,0x32,0x0,0x6F
00006a 006e
00006b 666f
00006c 0066
00006d 6f64      	.DB  0x6E,0x0,0x6F,0x66,0x66,0x0,0x64,0x6F
00006e 6d69
00006f 006b
000070 6f44
000071 2069      	.DB  0x69,0x6D,0x6B,0x0,0x44,0x6F,0x69,0x20
000072 616d
000073 2074
000074 686b
000075 7561      	.DB  0x6D,0x61,0x74,0x20,0x6B,0x68,0x61,0x75
000076 7420
000077 6168
000078 686e
000079 6320      	.DB  0x20,0x74,0x68,0x61,0x6E,0x68,0x20,0x63
00007a 6e6f
00007b 0067
00007c 6473
00007d 3174      	.DB  0x6F,0x6E,0x67,0x0,0x73,0x64,0x74,0x31
00007e 4400
00007f 2061
000080 6874
000081 6d65      	.DB  0x0,0x44,0x61,0x20,0x74,0x68,0x65,0x6D
000082 7320
000083 7464
000084 0031
000085 6473      	.DB  0x20,0x73,0x64,0x74,0x31,0x0,0x73,0x64
000086 3274
000087 4400
000088 2061
000089 6874      	.DB  0x74,0x32,0x0,0x44,0x61,0x20,0x74,0x68
00008a 6d65
00008b 7320
00008c 7464
00008d 0032      	.DB  0x65,0x6D,0x20,0x73,0x64,0x74,0x32,0x0
00008e 6473
00008f 3374
000090 4400
000091 2061      	.DB  0x73,0x64,0x74,0x33,0x0,0x44,0x61,0x20
000092 6874
000093 6d65
000094 7320
000095 7464      	.DB  0x74,0x68,0x65,0x6D,0x20,0x73,0x64,0x74
000096 0033
000097 746b
000098 6b74
000099 6e00      	.DB  0x33,0x0,0x6B,0x74,0x74,0x6B,0x0,0x6E
00009a 7061
00009b 6974
00009c 6e65
00009d 7400      	.DB  0x61,0x70,0x74,0x69,0x65,0x6E,0x0,0x74
00009e 6f68
00009f 676e
0000a0 6162
0000a1 206f      	.DB  0x68,0x6F,0x6E,0x67,0x62,0x61,0x6F,0x20
0000a2 6e6f
0000a3 4200
0000a4 7461
0000a5 7420      	.DB  0x6F,0x6E,0x0,0x42,0x61,0x74,0x20,0x74
0000a6 6f68
0000a7 676e
0000a8 6220
0000a9 6f61      	.DB  0x68,0x6F,0x6E,0x67,0x20,0x62,0x61,0x6F
0000aa 7400
0000ab 6f68
0000ac 676e
0000ad 6162      	.DB  0x0,0x74,0x68,0x6F,0x6E,0x67,0x62,0x61
0000ae 206f
0000af 666f
0000b0 0066
0000b1 6154      	.DB  0x6F,0x20,0x6F,0x66,0x66,0x0,0x54,0x61
0000b2 2074
0000b3 6874
0000b4 6e6f
0000b5 2067      	.DB  0x74,0x20,0x74,0x68,0x6F,0x6E,0x67,0x20
0000b6 6162
0000b7 006f
0000b8 746b
0000b9 7474      	.DB  0x62,0x61,0x6F,0x0,0x6B,0x74,0x74,0x74
0000ba 4c00
0000bb 696f
0000bc 6320
0000bd 2075      	.DB  0x0,0x4C,0x6F,0x69,0x20,0x63,0x75,0x20
0000be 6870
0000bf 7061
0000c0 4100
0000c1 0d54      	.DB  0x70,0x68,0x61,0x70,0x0,0x41,0x54,0xD
0000c2 000a
0000c3 5441
0000c4 3045
0000c5 0a0d      	.DB  0xA,0x0,0x41,0x54,0x45,0x30,0xD,0xA
0000c6 4100
0000c7 2b54
0000c8 4d43
0000c9 4647      	.DB  0x0,0x41,0x54,0x2B,0x43,0x4D,0x47,0x46
0000ca 313d
0000cb 0a0d
0000cc 4100
0000cd 2b54      	.DB  0x3D,0x31,0xD,0xA,0x0,0x41,0x54,0x2B
0000ce 4e43
0000cf 494d
0000d0 323d
0000d1 322c      	.DB  0x43,0x4E,0x4D,0x49,0x3D,0x32,0x2C,0x32
0000d2 302c
0000d3 302c
0000d4 302c
0000d5 0a0d      	.DB  0x2C,0x30,0x2C,0x30,0x2C,0x30,0xD,0xA
0000d6 4100
0000d7 2b54
0000d8 5543
0000d9 4453      	.DB  0x0,0x41,0x54,0x2B,0x43,0x55,0x53,0x44
0000da 313d
0000db 0a0d
0000dc 4100
0000dd 2b54      	.DB  0x3D,0x31,0xD,0xA,0x0,0x41,0x54,0x2B
0000de 4d43
0000df 4447
0000e0 3d41
0000e1 4544      	.DB  0x43,0x4D,0x47,0x44,0x41,0x3D,0x44,0x45
0000e2 204c
0000e3 4c41
0000e4 0d4c
0000e5 000a      	.DB  0x4C,0x20,0x41,0x4C,0x4C,0xD,0xA,0x0
                 _0x2020000:
0000e6 5441
0000e7 432b
0000e8 474d
0000e9 3d53      	.DB  0x41,0x54,0x2B,0x43,0x4D,0x47,0x53,0x3D
0000ea 0d00
0000eb 4100
0000ec 2b54
0000ed 5543      	.DB  0x0,0xD,0x0,0x41,0x54,0x2B,0x43,0x55
0000ee 4453
0000ef 313d
0000f0 0a0d
0000f1 4100      	.DB  0x53,0x44,0x3D,0x31,0xD,0xA,0x0,0x41
0000f2 4454
0000f3 312a
0000f4 3130
0000f5 3b23      	.DB  0x54,0x44,0x2A,0x31,0x30,0x31,0x23,0x3B
0000f6 0a0d
0000f7 4100
0000f8 4454
0000f9 312a      	.DB  0xD,0xA,0x0,0x41,0x54,0x44,0x2A,0x31
0000fa 3030
0000fb 002a      	.DB  0x30,0x30,0x2A,0x0
                 
                 __GLOBAL_INI_TBL:
0000fc 0001      	.DW  0x01
0000fd 0002      	.DW  0x02
0000fe 0038      	.DW  __REG_BIT_VARS*2
                 
0000ff 0009      	.DW  0x09
000100 0005      	.DW  0x05
000101 003a      	.DW  __REG_VARS*2
                 
000102 0007      	.DW  0x07
000103 0160      	.DW  _0x1F
000104 0044      	.DW  _0x0*2
                 
000105 000b      	.DW  0x0B
000106 0167      	.DW  _0x1F+7
000107 004b      	.DW  _0x0*2+7
                 
000108 000b      	.DW  0x0B
000109 0172      	.DW  _0x1F+18
00010a 0056      	.DW  _0x0*2+18
                 
00010b 0008      	.DW  0x08
00010c 017d      	.DW  _0x1F+29
00010d 0061      	.DW  _0x0*2+29
                 
00010e 0005      	.DW  0x05
00010f 0185      	.DW  _0x26
000110 0069      	.DW  _0x0*2+37
                 
000111 0005      	.DW  0x05
000112 018a      	.DW  _0x26+5
000113 006e      	.DW  _0x0*2+42
                 
000114 0005      	.DW  0x05
000115 018f      	.DW  _0x26+10
000116 0073      	.DW  _0x0*2+47
                 
000117 0005      	.DW  0x05
000118 0194      	.DW  _0x26+15
000119 0069      	.DW  _0x0*2+37
                 
00011a 0005      	.DW  0x05
00011b 0199      	.DW  _0x26+20
00011c 006e      	.DW  _0x0*2+42
                 
00011d 0005      	.DW  0x05
00011e 019e      	.DW  _0x26+25
00011f 006e      	.DW  _0x0*2+42
                 
000120 0005      	.DW  0x05
000121 01a3      	.DW  _0x26+30
000122 0073      	.DW  _0x0*2+47
                 
000123 0007      	.DW  0x07
000124 01a8      	.DW  _0x26+35
000125 007b      	.DW  _0x0*2+55
                 
000126 000a      	.DW  0x0A
000127 01af      	.DW  _0x26+42
000128 0082      	.DW  _0x0*2+62
                 
000129 000a      	.DW  0x0A
00012a 01b9      	.DW  _0x26+52
00012b 008c      	.DW  _0x0*2+72
                 
00012c 0007      	.DW  0x07
00012d 01c3      	.DW  _0x26+62
00012e 007b      	.DW  _0x0*2+55
                 
00012f 000a      	.DW  0x0A
000130 01ca      	.DW  _0x26+69
000131 0082      	.DW  _0x0*2+62
                 
000132 000a      	.DW  0x0A
000133 01d4      	.DW  _0x26+79
000134 008c      	.DW  _0x0*2+72
                 
000135 000f      	.DW  0x0F
000136 01de      	.DW  _0xA6
000137 00a5      	.DW  _0x0*2+97
                 
000138 000d      	.DW  0x0D
000139 01ed      	.DW  _0xA6+15
00013a 00b4      	.DW  _0x0*2+112
                 
00013b 0004      	.DW  0x04
00013c 01fa      	.DW  _0xA6+28
00013d 00c1      	.DW  _0x0*2+125
                 
00013e 0004      	.DW  0x04
00013f 01fe      	.DW  _0xA6+32
000140 00c5      	.DW  _0x0*2+129
                 
000141 0005      	.DW  0x05
000142 0202      	.DW  _0xA6+36
000143 00c9      	.DW  _0x0*2+133
                 
000144 0005      	.DW  0x05
000145 0207      	.DW  _0xA6+41
000146 00ce      	.DW  _0x0*2+138
                 
000147 0003      	.DW  0x03
000148 020c      	.DW  _0xA6+46
000149 00d3      	.DW  _0x0*2+143
                 
00014a 0004      	.DW  0x04
00014b 020f      	.DW  _0xA6+49
00014c 00d6      	.DW  _0x0*2+146
                 
00014d 0006      	.DW  0x06
00014e 0213      	.DW  _0xA6+53
00014f 00da      	.DW  _0x0*2+150
                 
000150 0018      	.DW  0x18
000151 0219      	.DW  _0xA6+59
000152 00e0      	.DW  _0x0*2+156
                 
000153 0005      	.DW  0x05
000154 0231      	.DW  _0xA6+83
000155 00f8      	.DW  _0x0*2+180
                 
000156 000d      	.DW  0x0D
000157 0236      	.DW  _0xA6+88
000158 00fd      	.DW  _0x0*2+185
                 
000159 0005      	.DW  0x05
00015a 0243      	.DW  _0xA6+101
00015b 010a      	.DW  _0x0*2+198
                 
00015c 000d      	.DW  0x0D
00015d 0248      	.DW  _0xA6+106
00015e 010f      	.DW  _0x0*2+203
                 
00015f 0005      	.DW  0x05
000160 0255      	.DW  _0xA6+119
000161 011c      	.DW  _0x0*2+216
                 
000162 000d      	.DW  0x0D
000163 025a      	.DW  _0xA6+124
000164 0121      	.DW  _0x0*2+221
                 
000165 0005      	.DW  0x05
000166 0267      	.DW  _0xA6+137
000167 012e      	.DW  _0x0*2+234
                 
000168 0008      	.DW  0x08
000169 026c      	.DW  _0xA6+142
00016a 0133      	.DW  _0x0*2+239
                 
00016b 000c      	.DW  0x0C
00016c 0274      	.DW  _0xA6+150
00016d 013b      	.DW  _0x0*2+247
                 
00016e 000e      	.DW  0x0E
00016f 0280      	.DW  _0xA6+162
000170 0147      	.DW  _0x0*2+259
                 
000171 000d      	.DW  0x0D
000172 028e      	.DW  _0xA6+176
000173 0155      	.DW  _0x0*2+273
                 
000174 000e      	.DW  0x0E
000175 029b      	.DW  _0xA6+189
000176 0162      	.DW  _0x0*2+286
                 
000177 0005      	.DW  0x05
000178 02a9      	.DW  _0xA6+203
000179 0170      	.DW  _0x0*2+300
                 
00017a 000c      	.DW  0x0C
00017b 02ae      	.DW  _0xA6+208
00017c 0175      	.DW  _0x0*2+305
                 
                 _0xFFFFFFFF:
00017d 0000      	.DW  0
                 
                 #define __GLOBAL_INI_TBL_PRESENT 1
                 
                 __RESET:
00017e 94f8      	CLI
00017f 27ee      	CLR  R30
000180 bbec      	OUT  EECR,R30
                 
                 ;INTERRUPT VECTORS ARE PLACED
                 ;AT THE START OF FLASH
000181 e0f1      	LDI  R31,1
000182 bffb      	OUT  GICR,R31
000183 bfeb      	OUT  GICR,R30
000184 bfe5      	OUT  MCUCR,R30
                 
                 ;CLEAR R2-R14
000185 e08d      	LDI  R24,(14-2)+1
000186 e0a2      	LDI  R26,2
000187 27bb      	CLR  R27
                 __CLEAR_REG:
000188 93ed      	ST   X+,R30
000189 958a      	DEC  R24
00018a f7e9      	BRNE __CLEAR_REG
                 
                 ;CLEAR SRAM
00018b e080      	LDI  R24,LOW(__CLEAR_SRAM_SIZE)
00018c e094      	LDI  R25,HIGH(__CLEAR_SRAM_SIZE)
00018d e6a0      	LDI  R26,__SRAM_START
                 __CLEAR_SRAM:
00018e 93ed      	ST   X+,R30
00018f 9701      	SBIW R24,1
000190 f7e9      	BRNE __CLEAR_SRAM
                 
                 ;GLOBAL VARIABLES INITIALIZATION
000191 efe8      	LDI  R30,LOW(__GLOBAL_INI_TBL*2)
000192 e0f1      	LDI  R31,HIGH(__GLOBAL_INI_TBL*2)
                 __GLOBAL_INI_NEXT:
000193 9185      	LPM  R24,Z+
000194 9195      	LPM  R25,Z+
000195 9700      	SBIW R24,0
000196 f061      	BREQ __GLOBAL_INI_END
000197 91a5      	LPM  R26,Z+
000198 91b5      	LPM  R27,Z+
000199 9005      	LPM  R0,Z+
00019a 9015      	LPM  R1,Z+
00019b 01bf      	MOVW R22,R30
00019c 01f0      	MOVW R30,R0
                 __GLOBAL_INI_LOOP:
00019d 9005      	LPM  R0,Z+
00019e 920d      	ST   X+,R0
00019f 9701      	SBIW R24,1
0001a0 f7e1      	BRNE __GLOBAL_INI_LOOP
0001a1 01fb      	MOVW R30,R22
0001a2 cff0      	RJMP __GLOBAL_INI_NEXT
                 __GLOBAL_INI_END:
                 
                 ;HARDWARE STACK POINTER INITIALIZATION
0001a3 e5ef      	LDI  R30,LOW(__SRAM_END-__HEAP_SIZE)
0001a4 bfed      	OUT  SPL,R30
0001a5 e0e4      	LDI  R30,HIGH(__SRAM_END-__HEAP_SIZE)
0001a6 bfee      	OUT  SPH,R30
                 
                 ;DATA STACK POINTER INITIALIZATION
0001a7 e6c0      	LDI  R28,LOW(__SRAM_START+__DSTACK_SIZE)
0001a8 e0d1      	LDI  R29,HIGH(__SRAM_START+__DSTACK_SIZE)
                 
0001a9 c478      	RJMP _main
                 
                 	.ESEG
                 	.ORG 0
                 
                 	.DSEG
                 	.ORG 0x160
                 
                 	.CSEG
                 ;/*******************************************************
                 ;This program was created by the
                 ;CodeWizardAVR V3.12 Advanced
                 ;Automatic Program Generator
                 ; Copyright 1998-2014 Pavel Haiduc, HP InfoTech s.r.l.
                 ;http://www.hpinfotech.com
                 ;
                 ;Project :
                 ;Version :
                 ;Date    : 10/14/2017
                 ;Author  :
                 ;Company :
                 ;Comments:
                 ;
                 ;
                 ;Chip type               : ATmega8
                 ;Program type            : Application
                 ;AVR Core Clock frequency: 1.000000 MHz
                 ;Memory model            : Small
                 ;External RAM size       : 0
                 ;Data Stack size         : 256
                 ;*******************************************************/
                 ;
                 ;#include <mega8.h>
                 	#ifndef __SLEEP_DEFINED__
                 	#define __SLEEP_DEFINED__
                 	.EQU __se_bit=0x80
                 	.EQU __sm_mask=0x70
                 	.EQU __sm_powerdown=0x20
                 	.EQU __sm_powersave=0x30
                 	.EQU __sm_standby=0x60
                 	.EQU __sm_ext_standby=0x70
                 	.EQU __sm_adc_noise_red=0x10
                 	.SET power_ctrl_reg=mcucr
                 	#endif
                 ;#include <stdio.h>
                 ;#include <sim800AT.h>
                 ;#include <string.h>
                 ;#include <delay.h>
                 ;
                 ;#define STT1    "1&2 ON"
                 ;#define STT2    "1:ON 2:OFF"
                 ;#define STT3    "1:OFF 2:ON"
                 ;#define STT4    "1&2 OFF"
                 ;
                 ;#define LOAD1   PORTC.0
                 ;#define LOAD2   PORTC.1
                 ;char content[15];
                 ;char syntax[15];
                 ;char qtyNum=10;
                 ;char type[4];
                 ;char phoneNumber[11];
                 ;char msgStr[100];
                 ;
                 ;eeprom char sdt1[11];
                 ;eeprom char sdt2[11];
                 ;eeprom char sdt3[11];
                 ;eeprom char lastNumber[11];
                 ;
                 ;eeprom char save1,save2,begin,tb;
                 ;eeprom char password[4];
                 ;
                 ;char flag,checkpass,result=0;
                 ;bit callFlag=0,smsFlag=0;
                 ;// Declare your global variables here
                 ;
                 ;
                 ;// External Interrupt 0 service routine
                 ;interrupt [EXT_INT0] void ext_int0_isr(void)
                 ; 0000 003B {
                 
                 	.CSEG
                 _ext_int0_isr:
                 ; .FSTART _ext_int0_isr
0001aa d655      	RCALL SUBOPT_0x0
                 ; 0000 003C  LOAD1=~LOAD1;
0001ab 9ba8      	SBIS 0x15,0
0001ac c002      	RJMP _0x3
0001ad 98a8      	CBI  0x15,0
0001ae c001      	RJMP _0x4
                 _0x3:
0001af 9aa8      	SBI  0x15,0
                 _0x4:
                 ; 0000 003D  save1=~save1;
0001b0 d65d      	RCALL SUBOPT_0x1
0001b1 d79d      	RCALL __EEPROMRDB
0001b2 95e0      	COM  R30
0001b3 d65a      	RCALL SUBOPT_0x1
0001b4 c00a      	RJMP _0x12F
                 ; 0000 003E  delay_ms(20);
                 ; 0000 003F 
                 ; 0000 0040 }
                 ; .FEND
                 ;
                 ;// External Interrupt 1 service routine
                 ;interrupt [EXT_INT1] void ext_int1_isr(void)
                 ; 0000 0044 {
                 _ext_int1_isr:
                 ; .FSTART _ext_int1_isr
0001b5 d64a      	RCALL SUBOPT_0x0
                 ; 0000 0045 LOAD2=~LOAD2;
0001b6 9ba9      	SBIS 0x15,1
0001b7 c002      	RJMP _0x5
0001b8 98a9      	CBI  0x15,1
0001b9 c001      	RJMP _0x6
                 _0x5:
0001ba 9aa9      	SBI  0x15,1
                 _0x6:
                 ; 0000 0046 save2=~save2;
0001bb d655      	RCALL SUBOPT_0x2
0001bc d792      	RCALL __EEPROMRDB
0001bd 95e0      	COM  R30
0001be d652      	RCALL SUBOPT_0x2
                 _0x12F:
0001bf d79b      	RCALL __EEPROMWRB
                 ; 0000 0047     delay_ms(20);
0001c0 e1a4      	LDI  R26,LOW(20)
0001c1 d652      	RCALL SUBOPT_0x3
                 ; 0000 0048 
                 ; 0000 0049 }
0001c2 91e9      	LD   R30,Y+
0001c3 bfef      	OUT  SREG,R30
0001c4 91f9      	LD   R31,Y+
0001c5 91e9      	LD   R30,Y+
0001c6 91b9      	LD   R27,Y+
0001c7 91a9      	LD   R26,Y+
0001c8 9199      	LD   R25,Y+
0001c9 9189      	LD   R24,Y+
0001ca 9179      	LD   R23,Y+
0001cb 9169      	LD   R22,Y+
0001cc 90f9      	LD   R15,Y+
0001cd 9019      	LD   R1,Y+
0001ce 9009      	LD   R0,Y+
0001cf 9518      	RETI
                 ; .FEND
                 ;
                 ;#define DATA_REGISTER_EMPTY (1<<UDRE)
                 ;#define RX_COMPLETE (1<<RXC)
                 ;#define FRAMING_ERROR (1<<FE)
                 ;#define PARITY_ERROR (1<<UPE)
                 ;#define DATA_OVERRUN (1<<DOR)
                 ;
                 ;// USART Receiver buffer
                 ;#define RX_BUFFER_SIZE 110
                 ;char rx_buffer[RX_BUFFER_SIZE];
                 ;
                 ;#if RX_BUFFER_SIZE <= 256
                 ;unsigned char rx_wr_index=0,rx_rd_index=0;
                 ;#else
                 ;unsigned int rx_wr_index=0,rx_rd_index=0;
                 ;#endif
                 ;
                 ;#if RX_BUFFER_SIZE < 256
                 ;unsigned char rx_counter=0;
                 ;#else
                 ;unsigned int rx_counter=0;
                 ;#endif
                 ;
                 ;// This flag is set on USART Receiver buffer overflow
                 ;bit rx_buffer_overflow;
                 ;
                 ;// USART Receiver interrupt service routine
                 ;interrupt [USART_RXC] void usart_rx_isr(void)
                 ; 0000 0066 {
                 _usart_rx_isr:
                 ; .FSTART _usart_rx_isr
0001d0 d645      	RCALL SUBOPT_0x4
                 ; 0000 0067 char status,data;
                 ; 0000 0068 status=UCSRA;
0001d1 d7a2      	RCALL __SAVELOCR2
                 ;	status -> R17
                 ;	data -> R16
0001d2 b11b      	IN   R17,11
                 ; 0000 0069 data=UDR;
0001d3 b10c      	IN   R16,12
                 ; 0000 006A if ((status & (FRAMING_ERROR | PARITY_ERROR | DATA_OVERRUN))==0)
0001d4 2fe1      	MOV  R30,R17
0001d5 71ec      	ANDI R30,LOW(0x1C)
0001d6 f491      	BRNE _0x7
                 ; 0000 006B    {
                 ; 0000 006C    rx_buffer[rx_wr_index++]=data;
0001d7 2de9      	MOV  R30,R9
0001d8 9493      	INC  R9
0001d9 e0f0      	LDI  R31,0
0001da d640      	RCALL SUBOPT_0x5
0001db 8300      	ST   Z,R16
                 ; 0000 006D    flag=1;
0001dc e0e1      	LDI  R30,LOW(1)
0001dd 2e4e      	MOV  R4,R30
                 ; 0000 006E #if RX_BUFFER_SIZE == 256
                 ; 0000 006F    // special case for receiver buffer size=256
                 ; 0000 0070    if (++rx_counter == 0) rx_buffer_overflow=1;
                 ; 0000 0071 #else
                 ; 0000 0072    if (rx_wr_index == RX_BUFFER_SIZE) rx_wr_index=0;
0001de e6ee      	LDI  R30,LOW(110)
0001df 15e9      	CP   R30,R9
0001e0 f409      	BRNE _0x8
0001e1 2499      	CLR  R9
                 ; 0000 0073    if (++rx_counter == RX_BUFFER_SIZE)
                 _0x8:
0001e2 94b3      	INC  R11
0001e3 e6ee      	LDI  R30,LOW(110)
0001e4 15eb      	CP   R30,R11
0001e5 f419      	BRNE _0x9
                 ; 0000 0074       {
                 ; 0000 0075       rx_counter=0;
0001e6 24bb      	CLR  R11
                 ; 0000 0076       rx_buffer_overflow=1;
0001e7 9468      	SET
0001e8 f822      	BLD  R2,2
                 ; 0000 0077       }
                 ; 0000 0078 #endif
                 ; 0000 0079    }
                 _0x9:
                 ; 0000 007A }
                 _0x7:
0001e9 9109      	LD   R16,Y+
0001ea 9119      	LD   R17,Y+
0001eb c00f      	RJMP _0x12E
                 ; .FEND
                 ;
                 ;#ifndef _DEBUG_TERMINAL_IO_
                 ;// Get a character from the USART Receiver buffer
                 ;#define _ALTERNATE_GETCHAR_
                 ;#pragma used+
                 ;char getchar(void)
                 ; 0000 0081 {
                 ; 0000 0082 char data;
                 ; 0000 0083 while (rx_counter==0);
                 ;	data -> R17
                 ; 0000 0084 data=rx_buffer[rx_rd_index++];
                 ; 0000 0085 #if RX_BUFFER_SIZE != 256
                 ; 0000 0086 if (rx_rd_index == RX_BUFFER_SIZE) rx_rd_index=0;
                 ; 0000 0087 #endif
                 ; 0000 0088 #asm("cli")
                 ; 0000 0089 --rx_counter;
                 ; 0000 008A #asm("sei")
                 ; 0000 008B return data;
                 ; 0000 008C }
                 ;#pragma used-
                 ;#endif
                 ;
                 ;// USART Transmitter buffer
                 ;#define TX_BUFFER_SIZE 1
                 ;char tx_buffer[TX_BUFFER_SIZE];
                 ;
                 ;#if TX_BUFFER_SIZE <= 256
                 ;unsigned char tx_wr_index=0,tx_rd_index=0;
                 ;#else
                 ;unsigned int tx_wr_index=0,tx_rd_index=0;
                 ;#endif
                 ;
                 ;#if TX_BUFFER_SIZE < 256
                 ;unsigned char tx_counter=0;
                 ;#else
                 ;unsigned int tx_counter=0;
                 ;#endif
                 ;
                 ;// USART Transmitter interrupt service routine
                 ;interrupt [USART_TXC] void usart_tx_isr(void)
                 ; 0000 00A2 {
                 _usart_tx_isr:
                 ; .FSTART _usart_tx_isr
0001ec d629      	RCALL SUBOPT_0x4
                 ; 0000 00A3 if (tx_counter)
0001ed 20cc      	TST  R12
0001ee f061      	BREQ _0xE
                 ; 0000 00A4    {
                 ; 0000 00A5    --tx_counter;
0001ef 94ca      	DEC  R12
                 ; 0000 00A6    UDR=tx_buffer[tx_rd_index++];
0001f0 2ded      	MOV  R30,R13
0001f1 94d3      	INC  R13
0001f2 e0f0      	LDI  R31,0
0001f3 54e7      	SUBI R30,LOW(-_tx_buffer)
0001f4 4ffc      	SBCI R31,HIGH(-_tx_buffer)
0001f5 81e0      	LD   R30,Z
0001f6 b9ec      	OUT  0xC,R30
                 ; 0000 00A7 #if TX_BUFFER_SIZE != 256
                 ; 0000 00A8    if (tx_rd_index == TX_BUFFER_SIZE) tx_rd_index=0;
0001f7 e0e1      	LDI  R30,LOW(1)
0001f8 15ed      	CP   R30,R13
0001f9 f409      	BRNE _0xF
0001fa 24dd      	CLR  R13
                 ; 0000 00A9 #endif
                 ; 0000 00AA    }
                 _0xF:
                 ; 0000 00AB }
                 _0xE:
                 _0x12E:
0001fb 91e9      	LD   R30,Y+
0001fc bfef      	OUT  SREG,R30
0001fd 91f9      	LD   R31,Y+
0001fe 91e9      	LD   R30,Y+
0001ff 9518      	RETI
                 ; .FEND
                 ;
                 ;#ifndef _DEBUG_TERMINAL_IO_
                 ;// Write a character to the USART Transmitter buffer
                 ;#define _ALTERNATE_PUTCHAR_
                 ;#pragma used+
                 ;void putchar(char c)
                 ; 0000 00B2 {
                 _putchar:
                 ; .FSTART _putchar
                 ; 0000 00B3 while (tx_counter == TX_BUFFER_SIZE);
000200 93aa      	ST   -Y,R26
                 ;	c -> Y+0
                 _0x10:
000201 e0e1      	LDI  R30,LOW(1)
000202 15ec      	CP   R30,R12
000203 f3e9      	BREQ _0x10
                 ; 0000 00B4 #asm("cli")
000204 94f8      	cli
                 ; 0000 00B5 if (tx_counter || ((UCSRA & DATA_REGISTER_EMPTY)==0))
000205 20cc      	TST  R12
000206 f411      	BRNE _0x14
000207 995d      	SBIC 0xB,5
000208 c00d      	RJMP _0x13
                 _0x14:
                 ; 0000 00B6    {
                 ; 0000 00B7    tx_buffer[tx_wr_index++]=c;
000209 2dea      	MOV  R30,R10
00020a 94a3      	INC  R10
00020b e0f0      	LDI  R31,0
00020c 54e7      	SUBI R30,LOW(-_tx_buffer)
00020d 4ffc      	SBCI R31,HIGH(-_tx_buffer)
00020e 81a8      	LD   R26,Y
00020f 83a0      	STD  Z+0,R26
                 ; 0000 00B8 #if TX_BUFFER_SIZE != 256
                 ; 0000 00B9    if (tx_wr_index == TX_BUFFER_SIZE) tx_wr_index=0;
000210 e0e1      	LDI  R30,LOW(1)
000211 15ea      	CP   R30,R10
000212 f409      	BRNE _0x16
000213 24aa      	CLR  R10
                 ; 0000 00BA #endif
                 ; 0000 00BB    ++tx_counter;
                 _0x16:
000214 94c3      	INC  R12
                 ; 0000 00BC    }
                 ; 0000 00BD else
000215 c002      	RJMP _0x17
                 _0x13:
                 ; 0000 00BE    UDR=c;
000216 81e8      	LD   R30,Y
000217 b9ec      	OUT  0xC,R30
                 ; 0000 00BF #asm("sei")
                 _0x17:
000218 9478      	sei
                 ; 0000 00C0 }
000219 9621      	ADIW R28,1
00021a 9508      	RET
                 ; .FEND
                 ;#pragma used-
                 ;#endif
                 ;
                 ;
                 ;void clearBuffer()
                 ; 0000 00C6 {   char i;
                 _clearBuffer:
                 ; .FSTART _clearBuffer
                 ; 0000 00C7 
                 ; 0000 00C8     for(i=0;i<rx_wr_index;i++)
00021b 931a      	ST   -Y,R17
                 ;	i -> R17
00021c e010      	LDI  R17,LOW(0)
                 _0x19:
00021d 1519      	CP   R17,R9
00021e f4e0      	BRSH _0x1A
                 ; 0000 00C9     {
                 ; 0000 00CA         rx_buffer[i]=msgStr[i]=phoneNumber[i]=content[i]=type[i]=0;
00021f d5fe      	RCALL SUBOPT_0x6
000220 d5fa      	RCALL SUBOPT_0x5
000221 93ff      	PUSH R31
000222 93ef      	PUSH R30
000223 d5fa      	RCALL SUBOPT_0x6
000224 d5fc      	RCALL SUBOPT_0x7
000225 01cf      	MOVW R24,R30
000226 d5f7      	RCALL SUBOPT_0x6
000227 d5fc      	RCALL SUBOPT_0x8
000228 01bf      	MOVW R22,R30
000229 d5f4      	RCALL SUBOPT_0x6
00022a 54e6      	SUBI R30,LOW(-_content)
00022b 4ffd      	SBCI R31,HIGH(-_content)
00022c d5fa      	RCALL SUBOPT_0x9
00022d 52a8      	SUBI R26,LOW(-_type)
00022e 4fbd      	SBCI R27,HIGH(-_type)
00022f e0e0      	LDI  R30,LOW(0)
000230 93ec      	ST   X,R30
000231 d5f9      	RCALL SUBOPT_0xA
000232 01db      	MOVW R26,R22
000233 93ec      	ST   X,R30
000234 01dc      	MOVW R26,R24
000235 93ec      	ST   X,R30
000236 91af      	POP  R26
000237 91bf      	POP  R27
000238 93ec      	ST   X,R30
                 ; 0000 00CB     }
000239 5f1f      	SUBI R17,-1
00023a cfe2      	RJMP _0x19
                 _0x1A:
                 ; 0000 00CC     rx_wr_index=0;
00023b 2499      	CLR  R9
                 ; 0000 00CD     checkpass=0;
00023c 2477      	CLR  R7
                 ; 0000 00CE     result=0;
00023d 2466      	CLR  R6
                 ; 0000 00CF     flag=0;
00023e 2444      	CLR  R4
                 ; 0000 00D0 }
00023f c224      	RJMP _0x2080003
                 ; .FEND
                 ;/****************************************************************
                 ;   content return from sim:
                 ;   - call:  RING
                 ;
                 ;            +CLIP: "0964444373",161,"",0,"",0
                 ;
                 ;   -sms: +CMT: "+84964444373","","17/10/14,15:04:39+28"
                 ;                #0000 on
                 ;   -kttk: +CUSD: 0, "TK goc la 12d. De biet cac CT dac biet cua Quy khach, bam goi *098#.", 15
                 ;
                 ;******************************************************************/
                 ;void comparePhoneNumber();
                 ;void callHandle();
                 ;void smsHandle();
                 ;unsigned char checkStatus();
                 ;
                 ;void sendSTT()
                 ; 0000 00E2 {
                 _sendSTT:
                 ; .FSTART _sendSTT
                 ; 0000 00E3     switch(checkStatus())
000240 d225      	RCALL _checkStatus
                 ; 0000 00E4        {
                 ; 0000 00E5          case 1: sendSMS(phoneNumber,STT1);
000241 30e1      	CPI  R30,LOW(0x1)
000242 f421      	BRNE _0x1E
000243 d5ea      	RCALL SUBOPT_0xB
                +
000244 e6a0     +LDI R26 , LOW ( _0x1F + ( 0 ) )
000245 e0b1     +LDI R27 , HIGH ( _0x1F + ( 0 ) )
                 	__POINTW2MN _0x1F,0
000246 c011      	RJMP _0x11D
                 ; 0000 00E6                  break;
                 ; 0000 00E7          case 2: sendSMS(phoneNumber,STT2);
                 _0x1E:
000247 30e2      	CPI  R30,LOW(0x2)
000248 f421      	BRNE _0x20
000249 d5e4      	RCALL SUBOPT_0xB
                +
00024a e6a7     +LDI R26 , LOW ( _0x1F + ( 7 ) )
00024b e0b1     +LDI R27 , HIGH ( _0x1F + ( 7 ) )
                 	__POINTW2MN _0x1F,7
00024c c00b      	RJMP _0x11D
                 ; 0000 00E8                  break;
                 ; 0000 00E9          case 3: sendSMS(phoneNumber,STT3);
                 _0x20:
00024d 30e3      	CPI  R30,LOW(0x3)
00024e f421      	BRNE _0x21
00024f d5de      	RCALL SUBOPT_0xB
                +
000250 e7a2     +LDI R26 , LOW ( _0x1F + ( 18 ) )
000251 e0b1     +LDI R27 , HIGH ( _0x1F + ( 18 ) )
                 	__POINTW2MN _0x1F,18
000252 c005      	RJMP _0x11D
                 ; 0000 00EA                  break;
                 ; 0000 00EB          case 4: sendSMS(phoneNumber,STT4);
                 _0x21:
000253 30e4      	CPI  R30,LOW(0x4)
000254 f421      	BRNE _0x1D
000255 d5d8      	RCALL SUBOPT_0xB
                +
000256 e7ad     +LDI R26 , LOW ( _0x1F + ( 29 ) )
000257 e0b1     +LDI R27 , HIGH ( _0x1F + ( 29 ) )
                 	__POINTW2MN _0x1F,29
                 _0x11D:
000258 d52e      	RCALL _sendSMS
                 ; 0000 00EC                  break;
                 ; 0000 00ED        }
                 _0x1D:
                 ; 0000 00EE }
000259 9508      	RET
                 ; .FEND
                 
                 	.DSEG
                 _0x1F:
000160           	.BYTE 0x25
                 ;void strHandle()
                 ; 0000 00F0 {
                 
                 	.CSEG
                 _strHandle:
                 ; .FSTART _strHandle
                 ; 0000 00F1     char i,k,l,pos,e=0,n=0;
                 ; 0000 00F2     char sendNumber[11];
                 ; 0000 00F3             while(strcmp(type,"CLIP")!=0 && strcmp(type,"CMT:")!=0 && strcmp(type,"CUSD")!=0)
00025a 972b      	SBIW R28,11
00025b d714      	RCALL __SAVELOCR6
                 ;	i -> R17
                 ;	k -> R16
                 ;	l -> R19
                 ;	pos -> R18
                 ;	e -> R21
                 ;	n -> R20
                 ;	sendNumber -> Y+6
00025c e050      	LDI  R21,0
00025d e040      	LDI  R20,0
                 _0x23:
00025e d5d4      	RCALL SUBOPT_0xC
                +
00025f e8a5     +LDI R26 , LOW ( _0x26 + ( 0 ) )
000260 e0b1     +LDI R27 , HIGH ( _0x26 + ( 0 ) )
                 	__POINTW2MN _0x26,0
000261 d5d6      	RCALL SUBOPT_0xD
000262 f051      	BREQ _0x27
000263 d5cf      	RCALL SUBOPT_0xC
                +
000264 e8aa     +LDI R26 , LOW ( _0x26 + ( 5 ) )
000265 e0b1     +LDI R27 , HIGH ( _0x26 + ( 5 ) )
                 	__POINTW2MN _0x26,5
000266 d5d1      	RCALL SUBOPT_0xD
000267 f029      	BREQ _0x27
000268 d5ca      	RCALL SUBOPT_0xC
                +
000269 e8af     +LDI R26 , LOW ( _0x26 + ( 10 ) )
00026a e0b1     +LDI R27 , HIGH ( _0x26 + ( 10 ) )
                 	__POINTW2MN _0x26,10
00026b d5cc      	RCALL SUBOPT_0xD
00026c f409      	BRNE _0x28
                 _0x27:
00026d c01a      	RJMP _0x25
                 _0x28:
                 ; 0000 00F4             {
                 ; 0000 00F5                 for(i=0;i<4;i++)
00026e e010      	LDI  R17,LOW(0)
                 _0x2A:
00026f 3014      	CPI  R17,4
000270 f480      	BRSH _0x2B
                 ; 0000 00F6                 {
                 ; 0000 00F7                     type[i]=rx_buffer[strpos(rx_buffer,'+')+1+i];
000271 d5ac      	RCALL SUBOPT_0x6
000272 52e8      	SUBI R30,LOW(-_type)
000273 4ffd      	SBCI R31,HIGH(-_type)
000274 93ff      	PUSH R31
000275 93ef      	PUSH R30
000276 d5c4      	RCALL SUBOPT_0xE
000277 e2ab      	LDI  R26,LOW(43)
000278 d568      	RCALL _strpos
000279 d5c6      	RCALL SUBOPT_0xF
00027a d5a3      	RCALL SUBOPT_0x6
00027b d5c7      	RCALL SUBOPT_0x10
00027c 91af      	POP  R26
00027d 91bf      	POP  R27
00027e 93ec      	ST   X,R30
                 ; 0000 00F8                 }
00027f 5f1f      	SUBI R17,-1
000280 cfee      	RJMP _0x2A
                 _0x2B:
                 ; 0000 00F9                 e++;
000281 5f5f      	SUBI R21,-1
                 ; 0000 00FA                 //printf(".");
                 ; 0000 00FB                 delay_ms(50);
000282 d5c5      	RCALL SUBOPT_0x11
                 ; 0000 00FC                 if(e>20)
000283 3155      	CPI  R21,21
000284 f010      	BRLO _0x2C
                 ; 0000 00FD                 {
                 ; 0000 00FE                   //printf("time out");
                 ; 0000 00FF                   clearBuffer();
000285 df95      	RCALL _clearBuffer
                 ; 0000 0100                   break;
000286 c001      	RJMP _0x25
                 ; 0000 0101                 }
                 ; 0000 0102             }
                 _0x2C:
000287 cfd6      	RJMP _0x23
                 _0x25:
                 ; 0000 0103             if(strcmp(type,"CLIP")==0)  //call
000288 d5aa      	RCALL SUBOPT_0xC
                +
000289 e9a4     +LDI R26 , LOW ( _0x26 + ( 15 ) )
00028a e0b1     +LDI R27 , HIGH ( _0x26 + ( 15 ) )
                 	__POINTW2MN _0x26,15
00028b d5ac      	RCALL SUBOPT_0xD
00028c f009      	BREQ PC+2
00028d c042      	RJMP _0x2D
                 ; 0000 0104             {
                 ; 0000 0105                 pos=strpos(rx_buffer,34); // "  //
00028e d5ac      	RCALL SUBOPT_0xE
00028f d5ba      	RCALL SUBOPT_0x12
000290 2f2e      	MOV  R18,R30
                 ; 0000 0106                 if(rx_buffer[pos+11]==34) qtyNum=10;
000291 d5ba      	RCALL SUBOPT_0x13
                +
000292 5aea     +SUBI R30 , LOW ( - _rx_buffer - ( 11 ) )
000293 4ffc     +SBCI R31 , HIGH ( - _rx_buffer - ( 11 ) )
                 	__ADDW1MN _rx_buffer,11
000294 81a0      	LD   R26,Z
000295 32a2      	CPI  R26,LOW(0x22)
000296 f411      	BRNE _0x2E
000297 e0ea      	LDI  R30,LOW(10)
000298 c001      	RJMP _0x11E
                 ; 0000 0107                 else qtyNum=11;
                 _0x2E:
000299 e0eb      	LDI  R30,LOW(11)
                 _0x11E:
00029a 2e5e      	MOV  R5,R30
                 ; 0000 0108                 for(k=0;k<qtyNum;k++)
00029b e000      	LDI  R16,LOW(0)
                 _0x31:
00029c 1505      	CP   R16,R5
00029d f450      	BRSH _0x32
                 ; 0000 0109                 {
                 ; 0000 010A                    phoneNumber[k]=rx_buffer[pos+1+k];
00029e d5b0      	RCALL SUBOPT_0x14
00029f d584      	RCALL SUBOPT_0x8
0002a0 010f      	MOVW R0,R30
0002a1 d5aa      	RCALL SUBOPT_0x13
0002a2 d59d      	RCALL SUBOPT_0xF
0002a3 d5ab      	RCALL SUBOPT_0x14
0002a4 d59e      	RCALL SUBOPT_0x10
0002a5 d585      	RCALL SUBOPT_0xA
                 ; 0000 010B                 }
0002a6 5f0f      	SUBI R16,-1
0002a7 cff4      	RJMP _0x31
                 _0x32:
                 ; 0000 010C                 if(lastNumber[0]!=phoneNumber[0] || lastNumber[2]!=phoneNumber[2] || lastNumber[4]!=phoneNumber[4] ||
                 ; 0000 010D                 lastNumber[6]!=phoneNumber[6] || lastNumber[9]!=phoneNumber[9])
0002a8 d5a9      	RCALL SUBOPT_0x15
0002a9 f471      	BRNE _0x34
0002aa d5af      	RCALL SUBOPT_0x16
0002ab f461      	BRNE _0x34
0002ac d5b5      	RCALL SUBOPT_0x17
0002ad f451      	BRNE _0x34
0002ae d5bb      	RCALL SUBOPT_0x18
0002af f441      	BRNE _0x34
                +
0002b0 e2aa     +LDI R26 , LOW ( _lastNumber + ( 9 ) )
0002b1 e0b0     +LDI R27 , HIGH ( _lastNumber + ( 9 ) )
                 	__POINTW2MN _lastNumber,9
0002b2 d69c      	RCALL __EEPROMRDB
0002b3 2fae      	MOV  R26,R30
                +
0002b4 91e0 02e5+LDS R30 , _phoneNumber + ( 9 )
                 	__GETB1MN _phoneNumber,9
0002b6 17ea      	CP   R30,R26
0002b7 f099      	BREQ _0x33
                 _0x34:
                 ; 0000 010E                 {
                 ; 0000 010F                    for(k=0;k<11;k++)
0002b8 e000      	LDI  R16,LOW(0)
                 _0x37:
0002b9 300b      	CPI  R16,11
0002ba f480      	BRSH _0x38
                 ; 0000 0110                    {
                 ; 0000 0111                      if(phoneNumber[k]<48||phoneNumber[k]>57) lastNumber[k]=0;
0002bb d593      	RCALL SUBOPT_0x14
0002bc d567      	RCALL SUBOPT_0x8
0002bd d5b4      	RCALL SUBOPT_0x19
0002be f010      	BRLO _0x3A
0002bf d5b5      	RCALL SUBOPT_0x1A
0002c0 f018      	BRLO _0x39
                 _0x3A:
0002c1 d5b6      	RCALL SUBOPT_0x1B
0002c2 e0e0      	LDI  R30,LOW(0)
0002c3 c004      	RJMP _0x11F
                 ; 0000 0112                      else lastNumber[k]=phoneNumber[k];
                 _0x39:
0002c4 d5b3      	RCALL SUBOPT_0x1B
0002c5 d589      	RCALL SUBOPT_0x14
0002c6 d55d      	RCALL SUBOPT_0x8
0002c7 81e0      	LD   R30,Z
                 _0x11F:
0002c8 d692      	RCALL __EEPROMWRB
                 ; 0000 0113                    }
0002c9 5f0f      	SUBI R16,-1
0002ca cfee      	RJMP _0x37
                 _0x38:
                 ; 0000 0114                 }
                 ; 0000 0115                 callFlag=1;
                 _0x33:
0002cb 9468      	SET
0002cc f820      	BLD  R2,0
                 ; 0000 0116                 if(callFlag)callHandle();
0002cd fc20      	SBRC R2,0
0002ce d168      	RCALL _callHandle
                 ; 0000 0117 
                 ; 0000 0118             }
                 ; 0000 0119             else  //sms
0002cf c0f0      	RJMP _0x3E
                 _0x2D:
                 ; 0000 011A             {
                 ; 0000 011B                if(strcmp(type,"CMT:")==0)
0002d0 d562      	RCALL SUBOPT_0xC
                +
0002d1 e9a9     +LDI R26 , LOW ( _0x26 + ( 20 ) )
0002d2 e0b1     +LDI R27 , HIGH ( _0x26 + ( 20 ) )
                 	__POINTW2MN _0x26,20
0002d3 d564      	RCALL SUBOPT_0xD
0002d4 f009      	BREQ PC+2
0002d5 c07f      	RJMP _0x3F
                 ; 0000 011C                {    //"+84964444373", ":0 ,:14-15
                 ; 0000 011D                     while(strpos(rx_buffer,'.')<=0)
                 _0x40:
0002d6 d564      	RCALL SUBOPT_0xE
0002d7 e2ae      	LDI  R26,LOW(46)
0002d8 d508      	RCALL _strpos
0002d9 d692      	RCALL __CPW01
0002da f03c      	BRLT _0x42
                 ; 0000 011E                     {
                 ; 0000 011F                        n++;
0002db 5f4f      	SUBI R20,-1
                 ; 0000 0120                        //printf(".");
                 ; 0000 0121                        delay_ms(50);
0002dc d56b      	RCALL SUBOPT_0x11
                 ; 0000 0122                        if(n>20)
0002dd 3145      	CPI  R20,21
0002de f010      	BRLO _0x43
                 ; 0000 0123                        {
                 ; 0000 0124                          //printf("time out");
                 ; 0000 0125                          clearBuffer();
0002df df3b      	RCALL _clearBuffer
                 ; 0000 0126                          break;
0002e0 c001      	RJMP _0x42
                 ; 0000 0127                        }
                 ; 0000 0128                     }
                 _0x43:
0002e1 cff4      	RJMP _0x40
                 _0x42:
                 ; 0000 0129                     if(strcmp(type,"CMT:")==0)
0002e2 d550      	RCALL SUBOPT_0xC
                +
0002e3 e9ae     +LDI R26 , LOW ( _0x26 + ( 25 ) )
0002e4 e0b1     +LDI R27 , HIGH ( _0x26 + ( 25 ) )
                 	__POINTW2MN _0x26,25
0002e5 d552      	RCALL SUBOPT_0xD
0002e6 f009      	BREQ PC+2
0002e7 c06c      	RJMP _0x44
                 ; 0000 012A                     {
                 ; 0000 012B                         pos=strpos(rx_buffer,'#');
0002e8 d552      	RCALL SUBOPT_0xE
0002e9 e2a3      	LDI  R26,LOW(35)
0002ea d4f6      	RCALL _strpos
0002eb 2f2e      	MOV  R18,R30
                 ; 0000 012C                         if(pos>0)
0002ec 3021      	CPI  R18,1
0002ed f408      	BRSH PC+2
0002ee c065      	RJMP _0x45
                 ; 0000 012D                         {
                 ; 0000 012E                             for(k=0;k<strpos(rx_buffer,'.')-pos;k++)
0002ef e000      	LDI  R16,LOW(0)
                 _0x47:
0002f0 d54a      	RCALL SUBOPT_0xE
0002f1 e2ae      	LDI  R26,LOW(46)
0002f2 d4ee      	RCALL _strpos
0002f3 01df      	MOVW R26,R30
0002f4 d557      	RCALL SUBOPT_0x13
0002f5 d587      	RCALL SUBOPT_0x1C
0002f6 d58a      	RCALL SUBOPT_0x1D
0002f7 f454      	BRGE _0x48
                 ; 0000 012F                             {
                 ; 0000 0130                                 msgStr[k]=rx_buffer[pos+1+k];
0002f8 d556      	RCALL SUBOPT_0x14
0002f9 d527      	RCALL SUBOPT_0x7
0002fa 010f      	MOVW R0,R30
0002fb d550      	RCALL SUBOPT_0x13
0002fc d543      	RCALL SUBOPT_0xF
0002fd d551      	RCALL SUBOPT_0x14
0002fe d544      	RCALL SUBOPT_0x10
0002ff d52b      	RCALL SUBOPT_0xA
                 ; 0000 0131                             }
000300 5f0f      	SUBI R16,-1
000301 cfee      	RJMP _0x47
                 _0x48:
                 ; 0000 0132                             for(l=1;l<(strpos(rx_buffer,',')-strpos(rx_buffer,34)-4);l++)
000302 e031      	LDI  R19,LOW(1)
                 _0x4A:
000303 d537      	RCALL SUBOPT_0xE
000304 e2ac      	LDI  R26,LOW(44)
000305 d4db      	RCALL _strpos
000306 93ff      	PUSH R31
000307 93ef      	PUSH R30
000308 d532      	RCALL SUBOPT_0xE
000309 d540      	RCALL SUBOPT_0x12
00030a 91af      	POP  R26
00030b 91bf      	POP  R27
00030c 1bae      	SUB  R26,R30
00030d 0bbf      	SBC  R27,R31
00030e e0e4      	LDI  R30,LOW(4)
00030f e0f0      	LDI  R31,HIGH(4)
000310 d56c      	RCALL SUBOPT_0x1C
000311 d574      	RCALL SUBOPT_0x1E
000312 17ae      	CP   R26,R30
000313 07bf      	CPC  R27,R31
000314 f494      	BRGE _0x4B
                 ; 0000 0133                             {
                 ; 0000 0134                                 phoneNumber[0]='0';
000315 e3e0      	LDI  R30,LOW(48)
000316 93e0 02dc 	STS  _phoneNumber,R30
                 ; 0000 0135                                 phoneNumber[l]=rx_buffer[strpos(rx_buffer,34)+3+l];
000318 d570      	RCALL SUBOPT_0x1F
000319 d50a      	RCALL SUBOPT_0x8
00031a 93ff      	PUSH R31
00031b 93ef      	PUSH R30
00031c d51e      	RCALL SUBOPT_0xE
00031d d52c      	RCALL SUBOPT_0x12
00031e 9633      	ADIW R30,3
00031f 01df      	MOVW R26,R30
000320 d568      	RCALL SUBOPT_0x1F
000321 d521      	RCALL SUBOPT_0x10
000322 91af      	POP  R26
000323 91bf      	POP  R27
000324 93ec      	ST   X,R30
                 ; 0000 0136                             }
000325 5f3f      	SUBI R19,-1
000326 cfdc      	RJMP _0x4A
                 _0x4B:
                 ; 0000 0137                             if(lastNumber[0]!=phoneNumber[0] || lastNumber[2]!=phoneNumber[2] || lastNumber[4]!=phoneNum ...
                 ; 0000 0138                             lastNumber[6]!=phoneNumber[6] || lastNumber[7]!=phoneNumber[7])
000327 d52a      	RCALL SUBOPT_0x15
000328 f471      	BRNE _0x4D
000329 d530      	RCALL SUBOPT_0x16
00032a f461      	BRNE _0x4D
00032b d536      	RCALL SUBOPT_0x17
00032c f451      	BRNE _0x4D
00032d d53c      	RCALL SUBOPT_0x18
00032e f441      	BRNE _0x4D
                +
00032f e2a8     +LDI R26 , LOW ( _lastNumber + ( 7 ) )
000330 e0b0     +LDI R27 , HIGH ( _lastNumber + ( 7 ) )
                 	__POINTW2MN _lastNumber,7
000331 d61d      	RCALL __EEPROMRDB
000332 2fae      	MOV  R26,R30
                +
000333 91e0 02e3+LDS R30 , _phoneNumber + ( 7 )
                 	__GETB1MN _phoneNumber,7
000335 17ea      	CP   R30,R26
000336 f0c9      	BREQ _0x4C
                 _0x4D:
                 ; 0000 0139                             {
                 ; 0000 013A                                for(l=0;l<11;l++)
000337 e030      	LDI  R19,LOW(0)
                 _0x50:
000338 303b      	CPI  R19,11
000339 f4b0      	BRSH _0x51
                 ; 0000 013B                                { printf("s.");
                +
00033a e7e8     +LDI R30 , LOW ( 2 * _0x0 + ( 52 ) )
00033b e0f0     +LDI R31 , HIGH ( 2 * _0x0 + ( 52 ) )
                 	__POINTW1FN _0x0,52
00033c d54f      	RCALL SUBOPT_0x20
00033d d551      	RCALL SUBOPT_0x21
                 ; 0000 013C                                  if(phoneNumber[l]<48||phoneNumber[l]>57) lastNumber[l]=0;
00033e d54a      	RCALL SUBOPT_0x1F
00033f d4e4      	RCALL SUBOPT_0x8
000340 d531      	RCALL SUBOPT_0x19
000341 f010      	BRLO _0x53
000342 d532      	RCALL SUBOPT_0x1A
000343 f020      	BRLO _0x52
                 _0x53:
000344 d541      	RCALL SUBOPT_0x1E
000345 d54d      	RCALL SUBOPT_0x22
000346 e0e0      	LDI  R30,LOW(0)
000347 c005      	RJMP _0x120
                 ; 0000 013D                                  else lastNumber[l]=phoneNumber[l];
                 _0x52:
000348 d53d      	RCALL SUBOPT_0x1E
000349 d549      	RCALL SUBOPT_0x22
00034a d53e      	RCALL SUBOPT_0x1F
00034b d4d8      	RCALL SUBOPT_0x8
00034c 81e0      	LD   R30,Z
                 _0x120:
00034d d60d      	RCALL __EEPROMWRB
                 ; 0000 013E                                }
00034e 5f3f      	SUBI R19,-1
00034f cfe8      	RJMP _0x50
                 _0x51:
                 ; 0000 013F                             }
                 ; 0000 0140                             //puts(phoneNumber);
                 ; 0000 0141                             smsFlag=1;
                 _0x4C:
000350 9468      	SET
000351 f821      	BLD  R2,1
                 ; 0000 0142                             //puts(msgStr);
                 ; 0000 0143                             if(smsFlag) smsHandle();
000352 fc21      	SBRC R2,1
000353 d122      	RCALL _smsHandle
                 ; 0000 0144                         }
                 ; 0000 0145                     }
                 _0x45:
                 ; 0000 0146 
                 ; 0000 0147                }
                 _0x44:
                 ; 0000 0148                else
000354 c06b      	RJMP _0x57
                 _0x3F:
                 ; 0000 0149                {//+CUSD: 0, "TK goc la 12d. De biet cac CT dac biet cua Quy khach, bam goi *098#.", 15
                 ; 0000 014A                     if(strcmp(type,"CUSD")==0)
000355 d4dd      	RCALL SUBOPT_0xC
                +
000356 eaa3     +LDI R26 , LOW ( _0x26 + ( 30 ) )
000357 e0b1     +LDI R27 , HIGH ( _0x26 + ( 30 ) )
                 	__POINTW2MN _0x26,30
000358 d4df      	RCALL SUBOPT_0xD
000359 f009      	BREQ PC+2
00035a c065      	RJMP _0x58
                 ; 0000 014B                     {
                 ; 0000 014C                        pos=strpos(rx_buffer,34);
00035b d4df      	RCALL SUBOPT_0xE
00035c d4ed      	RCALL SUBOPT_0x12
00035d 2f2e      	MOV  R18,R30
                 ; 0000 014D                        for(k=0;k<(strrpos(rx_buffer,34)-pos-1);k++)
00035e e000      	LDI  R16,LOW(0)
                 _0x5A:
00035f d4db      	RCALL SUBOPT_0xE
000360 e2a2      	LDI  R26,LOW(34)
000361 d48e      	RCALL _strrpos
000362 01df      	MOVW R26,R30
000363 d4e8      	RCALL SUBOPT_0x13
000364 1bae      	SUB  R26,R30
000365 0bbf      	SBC  R27,R31
000366 e0e1      	LDI  R30,LOW(1)
000367 e0f0      	LDI  R31,HIGH(1)
000368 d514      	RCALL SUBOPT_0x1C
000369 d517      	RCALL SUBOPT_0x1D
00036a f454      	BRGE _0x5B
                 ; 0000 014E                        {
                 ; 0000 014F                          msgStr[k]=rx_buffer[pos+1+k];
00036b d4e3      	RCALL SUBOPT_0x14
00036c d4b4      	RCALL SUBOPT_0x7
00036d 010f      	MOVW R0,R30
00036e d4dd      	RCALL SUBOPT_0x13
00036f d4d0      	RCALL SUBOPT_0xF
000370 d4de      	RCALL SUBOPT_0x14
000371 d4d1      	RCALL SUBOPT_0x10
000372 d4b8      	RCALL SUBOPT_0xA
                 ; 0000 0150                        }
000373 5f0f      	SUBI R16,-1
000374 cfea      	RJMP _0x5A
                 _0x5B:
                 ; 0000 0151                        n=0;
000375 e040      	LDI  R20,LOW(0)
                 ; 0000 0152                        while(strcmp(msgStr,"TK goc")<0 && strcmp(msgStr,"Ma so the")<0 && strcmp(msgStr,"Tai khoan")<0)
                 _0x5C:
000376 d51f      	RCALL SUBOPT_0x23
                +
000377 eaa8     +LDI R26 , LOW ( _0x26 + ( 35 ) )
000378 e0b1     +LDI R27 , HIGH ( _0x26 + ( 35 ) )
                 	__POINTW2MN _0x26,35
000379 d4be      	RCALL SUBOPT_0xD
00037a f454      	BRGE _0x5F
00037b d51a      	RCALL SUBOPT_0x23
                +
00037c eaaf     +LDI R26 , LOW ( _0x26 + ( 42 ) )
00037d e0b1     +LDI R27 , HIGH ( _0x26 + ( 42 ) )
                 	__POINTW2MN _0x26,42
00037e d4b9      	RCALL SUBOPT_0xD
00037f f42c      	BRGE _0x5F
000380 d515      	RCALL SUBOPT_0x23
                +
000381 eba9     +LDI R26 , LOW ( _0x26 + ( 52 ) )
000382 e0b1     +LDI R27 , HIGH ( _0x26 + ( 52 ) )
                 	__POINTW2MN _0x26,52
000383 d4b4      	RCALL SUBOPT_0xD
000384 f00c      	BRLT _0x60
                 _0x5F:
000385 c00a      	RJMP _0x5E
                 _0x60:
                 ; 0000 0153                        {
                 ; 0000 0154                          n++;
000386 5f4f      	SUBI R20,-1
                 ; 0000 0155                          delay_ms(50);
000387 d4c0      	RCALL SUBOPT_0x11
                 ; 0000 0156                          if(n>20)
000388 3145      	CPI  R20,21
000389 f028      	BRLO _0x61
                 ; 0000 0157                          { printf("time out");
                +
00038a e9e6     +LDI R30 , LOW ( 2 * _0x0 + ( 82 ) )
00038b e0f0     +LDI R31 , HIGH ( 2 * _0x0 + ( 82 ) )
                 	__POINTW1FN _0x0,82
00038c d50c      	RCALL SUBOPT_0x24
                 ; 0000 0158                            clearBuffer();
00038d d50d      	RCALL SUBOPT_0x25
                 ; 0000 0159                            flag=0;
                 ; 0000 015A                            smsFlag=0;
                 ; 0000 015B                            break;
00038e c001      	RJMP _0x5E
                 ; 0000 015C                          }
                 ; 0000 015D                        }
                 _0x61:
00038f cfe6      	RJMP _0x5C
                 _0x5E:
                 ; 0000 015E                        if(strcmp(msgStr,"TK goc")>=0 || strcmp(msgStr,"Ma so the")>=0 || strcmp(msgStr,"Tai khoan")>=0)
000390 d505      	RCALL SUBOPT_0x23
                +
000391 eca3     +LDI R26 , LOW ( _0x26 + ( 62 ) )
000392 e0b1     +LDI R27 , HIGH ( _0x26 + ( 62 ) )
                 	__POINTW2MN _0x26,62
000393 d4a4      	RCALL SUBOPT_0xD
000394 f454      	BRGE _0x63
000395 d500      	RCALL SUBOPT_0x23
                +
000396 ecaa     +LDI R26 , LOW ( _0x26 + ( 69 ) )
000397 e0b1     +LDI R27 , HIGH ( _0x26 + ( 69 ) )
                 	__POINTW2MN _0x26,69
000398 d49f      	RCALL SUBOPT_0xD
000399 f42c      	BRGE _0x63
00039a d4fb      	RCALL SUBOPT_0x23
                +
00039b eda4     +LDI R26 , LOW ( _0x26 + ( 79 ) )
00039c e0b1     +LDI R27 , HIGH ( _0x26 + ( 79 ) )
                 	__POINTW2MN _0x26,79
00039d d49a      	RCALL SUBOPT_0xD
00039e f10c      	BRLT _0x62
                 _0x63:
                 ; 0000 015F                        {
                 ; 0000 0160                          for(l=0;l<11;l++)
00039f e030      	LDI  R19,LOW(0)
                 _0x66:
0003a0 303b      	CPI  R19,11
0003a1 f4b8      	BRSH _0x67
                 ; 0000 0161                          {
                 ; 0000 0162                            if(lastNumber[l]<48|| lastNumber[l]>57) sendNumber[l]=0;
0003a2 d4e3      	RCALL SUBOPT_0x1E
0003a3 d4ef      	RCALL SUBOPT_0x22
0003a4 d5aa      	RCALL __EEPROMRDB
0003a5 33e0      	CPI  R30,LOW(0x30)
0003a6 f010      	BRLO _0x69
0003a7 33ea      	CPI  R30,LOW(0x3A)
0003a8 f028      	BRLO _0x68
                 _0x69:
0003a9 d4df      	RCALL SUBOPT_0x1F
0003aa 01de      	MOVW R26,R28
0003ab 9616      	ADIW R26,6
0003ac d4f3      	RCALL SUBOPT_0x26
0003ad c008      	RJMP _0x121
                 ; 0000 0163                            else sendNumber[l]=lastNumber[l];
                 _0x68:
0003ae d4da      	RCALL SUBOPT_0x1F
0003af 01de      	MOVW R26,R28
0003b0 9616      	ADIW R26,6
0003b1 d4f2      	RCALL SUBOPT_0x27
0003b2 010f      	MOVW R0,R30
0003b3 d4d2      	RCALL SUBOPT_0x1E
0003b4 d4de      	RCALL SUBOPT_0x22
0003b5 d4f1      	RCALL SUBOPT_0x28
                 _0x121:
0003b6 93ec      	ST   X,R30
                 ; 0000 0164                          }
0003b7 5f3f      	SUBI R19,-1
0003b8 cfe7      	RJMP _0x66
                 _0x67:
                 ; 0000 0165                          sendSMS(sendNumber,msgStr);
0003b9 01fe      	MOVW R30,R28
0003ba 9636      	ADIW R30,6
0003bb d4d0      	RCALL SUBOPT_0x20
0003bc eea7      	LDI  R26,LOW(_msgStr)
0003bd e0b2      	LDI  R27,HIGH(_msgStr)
0003be d3c8      	RCALL _sendSMS
                 ; 0000 0166                          clearBuffer();
0003bf d4db      	RCALL SUBOPT_0x25
                 ; 0000 0167                          flag=0;
                 ; 0000 0168                          smsFlag=0;
                 ; 0000 0169                        }
                 ; 0000 016A                        //puts(msgStr);
                 ; 0000 016B 
                 ; 0000 016C                     }
                 _0x62:
                 ; 0000 016D 
                 ; 0000 016E 
                 ; 0000 016F                }
                 _0x58:
                 _0x57:
                 ; 0000 0170             }
                 _0x3E:
                 ; 0000 0171 
                 ; 0000 0172 }
0003c0 d5b6      	RCALL __LOADLOCR6
0003c1 9661      	ADIW R28,17
0003c2 9508      	RET
                 ; .FEND
                 
                 	.DSEG
                 _0x26:
000185           	.BYTE 0x59
                 ;void checkPassword()
                 ; 0000 0174 {
                 
                 	.CSEG
                 _checkPassword:
                 ; .FSTART _checkPassword
                 ; 0000 0175    if(msgStr[0]==password[0]&&msgStr[1]==password[1]&&msgStr[2]==password[2]&&msgStr[3]==password[3]) checkpass=1;
0003c3 e3a0      	LDI  R26,LOW(_password)
0003c4 e0b0      	LDI  R27,HIGH(_password)
0003c5 d589      	RCALL __EEPROMRDB
0003c6 91a0 02e7 	LDS  R26,_msgStr
0003c8 17ea      	CP   R30,R26
0003c9 f4a9      	BRNE _0x6D
                +
0003ca e3a1     +LDI R26 , LOW ( _password + ( 1 ) )
0003cb e0b0     +LDI R27 , HIGH ( _password + ( 1 ) )
                 	__POINTW2MN _password,1
0003cc d582      	RCALL __EEPROMRDB
                +
0003cd 91a0 02e8+LDS R26 , _msgStr + ( 1 )
                 	__GETB2MN _msgStr,1
0003cf 17ea      	CP   R30,R26
0003d0 f471      	BRNE _0x6D
                +
0003d1 e3a2     +LDI R26 , LOW ( _password + ( 2 ) )
0003d2 e0b0     +LDI R27 , HIGH ( _password + ( 2 ) )
                 	__POINTW2MN _password,2
0003d3 d57b      	RCALL __EEPROMRDB
                +
0003d4 91a0 02e9+LDS R26 , _msgStr + ( 2 )
                 	__GETB2MN _msgStr,2
0003d6 17ea      	CP   R30,R26
0003d7 f439      	BRNE _0x6D
                +
0003d8 e3a3     +LDI R26 , LOW ( _password + ( 3 ) )
0003d9 e0b0     +LDI R27 , HIGH ( _password + ( 3 ) )
                 	__POINTW2MN _password,3
0003da d574      	RCALL __EEPROMRDB
                +
0003db 91a0 02ea+LDS R26 , _msgStr + ( 3 )
                 	__GETB2MN _msgStr,3
0003dd 17ea      	CP   R30,R26
0003de f009      	BREQ _0x6E
                 _0x6D:
0003df c003      	RJMP _0x6C
                 _0x6E:
0003e0 e0e1      	LDI  R30,LOW(1)
0003e1 2e7e      	MOV  R7,R30
                 ; 0000 0176    else
0003e2 c001      	RJMP _0x6F
                 _0x6C:
                 ; 0000 0177    {
                 ; 0000 0178     checkpass=0;
0003e3 2477      	CLR  R7
                 ; 0000 0179    }
                 _0x6F:
                 ; 0000 017A }
0003e4 9508      	RET
                 ; .FEND
                 ;void comparePhoneNumber()
                 ; 0000 017C {  char dt1[11],dt2[11],dt3[11];
                 _comparePhoneNumber:
                 ; .FSTART _comparePhoneNumber
                 ; 0000 017D    char i;
                 ; 0000 017E    for(i=0;i<11;i++)
0003e5 97a1      	SBIW R28,33
0003e6 931a      	ST   -Y,R17
                 ;	dt1 -> Y+23
                 ;	dt2 -> Y+12
                 ;	dt3 -> Y+1
                 ;	i -> R17
0003e7 e010      	LDI  R17,LOW(0)
                 _0x71:
0003e8 301b      	CPI  R17,11
0003e9 f5a8      	BRSH _0x72
                 ; 0000 017F    {
                 ; 0000 0180         if(sdt1[i]==255) dt1[i]=0;
0003ea d4bf      	RCALL SUBOPT_0x29
0003eb d4c1      	RCALL SUBOPT_0x2A
0003ec d4c3      	RCALL SUBOPT_0x2B
0003ed f429      	BRNE _0x73
0003ee d42f      	RCALL SUBOPT_0x6
0003ef 01de      	MOVW R26,R28
0003f0 9657      	ADIW R26,23
0003f1 d4ae      	RCALL SUBOPT_0x26
0003f2 c007      	RJMP _0x122
                 ; 0000 0181         else dt1[i]=sdt1[i];
                 _0x73:
0003f3 d42a      	RCALL SUBOPT_0x6
0003f4 01de      	MOVW R26,R28
0003f5 9657      	ADIW R26,23
0003f6 d4ad      	RCALL SUBOPT_0x27
0003f7 d42f      	RCALL SUBOPT_0x9
0003f8 d4b4      	RCALL SUBOPT_0x2A
0003f9 d4ad      	RCALL SUBOPT_0x28
                 _0x122:
0003fa 93ec      	ST   X,R30
                 ; 0000 0182         if(sdt2[i]==255) dt2[i]=0;
0003fb d4ae      	RCALL SUBOPT_0x29
0003fc d4b6      	RCALL SUBOPT_0x2C
0003fd d4b2      	RCALL SUBOPT_0x2B
0003fe f429      	BRNE _0x75
0003ff d41e      	RCALL SUBOPT_0x6
000400 01de      	MOVW R26,R28
000401 961c      	ADIW R26,12
000402 d49d      	RCALL SUBOPT_0x26
000403 c007      	RJMP _0x123
                 ; 0000 0183         else dt2[i]=sdt2[i];
                 _0x75:
000404 d419      	RCALL SUBOPT_0x6
000405 01de      	MOVW R26,R28
000406 961c      	ADIW R26,12
000407 d49c      	RCALL SUBOPT_0x27
000408 d41e      	RCALL SUBOPT_0x9
000409 d4a9      	RCALL SUBOPT_0x2C
00040a d49c      	RCALL SUBOPT_0x28
                 _0x123:
00040b 93ec      	ST   X,R30
                 ; 0000 0184         if(sdt3[i]==255) dt3[i]=0;
00040c d49d      	RCALL SUBOPT_0x29
00040d d4a8      	RCALL SUBOPT_0x2D
00040e d4a1      	RCALL SUBOPT_0x2B
00040f f429      	BRNE _0x77
000410 d40d      	RCALL SUBOPT_0x6
000411 01de      	MOVW R26,R28
000412 9611      	ADIW R26,1
000413 d48c      	RCALL SUBOPT_0x26
000414 c007      	RJMP _0x124
                 ; 0000 0185         else dt3[i]=sdt3[i];
                 _0x77:
000415 d408      	RCALL SUBOPT_0x6
000416 01de      	MOVW R26,R28
000417 9611      	ADIW R26,1
000418 d48b      	RCALL SUBOPT_0x27
000419 d40d      	RCALL SUBOPT_0x9
00041a d49b      	RCALL SUBOPT_0x2D
00041b d48b      	RCALL SUBOPT_0x28
                 _0x124:
00041c 93ec      	ST   X,R30
                 ; 0000 0186    }
00041d 5f1f      	SUBI R17,-1
00041e cfc9      	RJMP _0x71
                 _0x72:
                 ; 0000 0187    if(callFlag==1)
00041f fe20      	SBRS R2,0
000420 c013      	RJMP _0x79
                 ; 0000 0188    {
                 ; 0000 0189       if(strcmp(phoneNumber,dt1)==0||strcmp(phoneNumber,dt2)==0||strcmp(phoneNumber,dt3)==0) result=1;
000421 d40c      	RCALL SUBOPT_0xB
000422 01de      	MOVW R26,R28
000423 9659      	ADIW R26,25
000424 d413      	RCALL SUBOPT_0xD
000425 f051      	BREQ _0x7B
000426 d407      	RCALL SUBOPT_0xB
000427 01de      	MOVW R26,R28
000428 961e      	ADIW R26,14
000429 d40e      	RCALL SUBOPT_0xD
00042a f029      	BREQ _0x7B
00042b d402      	RCALL SUBOPT_0xB
00042c 01de      	MOVW R26,R28
00042d 9613      	ADIW R26,3
00042e d409      	RCALL SUBOPT_0xD
00042f f419      	BRNE _0x7A
                 _0x7B:
000430 e0e1      	LDI  R30,LOW(1)
000431 2e6e      	MOV  R6,R30
                 ; 0000 018A       else
000432 c001      	RJMP _0x7D
                 _0x7A:
                 ; 0000 018B       {
                 ; 0000 018C         result=0;
000433 2466      	CLR  R6
                 ; 0000 018D       }
                 _0x7D:
                 ; 0000 018E    }
                 ; 0000 018F }
                 _0x79:
000434 8118      	LDD  R17,Y+0
000435 96a2      	ADIW R28,34
000436 9508      	RET
                 ; .FEND
                 ;void callHandle()
                 ; 0000 0191 {   unsigned char n=0;
                 _callHandle:
                 ; .FSTART _callHandle
                 ; 0000 0192     comparePhoneNumber();
000437 931a      	ST   -Y,R17
                 ;	n -> R17
000438 e010      	LDI  R17,0
000439 dfab      	RCALL _comparePhoneNumber
                 ; 0000 0193     while(result==0)
                 _0x7E:
00043a 2066      	TST  R6
00043b f449      	BRNE _0x80
                 ; 0000 0194     {
                 ; 0000 0195        n++;
00043c 5f1f      	SUBI R17,-1
                 ; 0000 0196        //printf(".");
                 ; 0000 0197        delay_ms(50);
00043d d40a      	RCALL SUBOPT_0x11
                 ; 0000 0198        if(n>20)
00043e 3115      	CPI  R17,21
00043f f020      	BRLO _0x81
                 ; 0000 0199        {
                 ; 0000 019A           //printf("time out");
                 ; 0000 019B           printf("ATH\r\n");
000440 d478      	RCALL SUBOPT_0x2E
                 ; 0000 019C           clearBuffer();
000441 ddd9      	RCALL _clearBuffer
                 ; 0000 019D           result=callFlag=0;
000442 d479      	RCALL SUBOPT_0x2F
                 ; 0000 019E           flag=0;
                 ; 0000 019F           break;
000443 c001      	RJMP _0x80
                 ; 0000 01A0        }
                 ; 0000 01A1     }
                 _0x81:
000444 cff5      	RJMP _0x7E
                 _0x80:
                 ; 0000 01A2     if(result==1)
000445 e0e1      	LDI  R30,LOW(1)
000446 15e6      	CP   R30,R6
000447 f4e1      	BRNE _0x82
                 ; 0000 01A3     {
                 ; 0000 01A4         if(save1==1&&save2==1)
000448 d478      	RCALL SUBOPT_0x30
000449 f411      	BRNE _0x84
00044a d47a      	RCALL SUBOPT_0x31
00044b f009      	BREQ _0x85
                 _0x84:
00044c c00b      	RJMP _0x83
                 _0x85:
                 ; 0000 01A5         {
                 ; 0000 01A6 
                 ; 0000 01A7             LOAD1=0;
00044d 98a8      	CBI  0x15,0
                 ; 0000 01A8             LOAD2=0;
00044e d47a      	RCALL SUBOPT_0x32
                 ; 0000 01A9             save1=save2=0;
00044f d3be      	RCALL SUBOPT_0x1
000450 d50a      	RCALL __EEPROMWRB
                 ; 0000 01AA             //printf("off");
                 ; 0000 01AB             printf("ATH\r\n");
000451 d467      	RCALL SUBOPT_0x2E
                 ; 0000 01AC             delay_ms(100);
000452 e6a4      	LDI  R26,LOW(100)
000453 d3c0      	RCALL SUBOPT_0x3
                 ; 0000 01AD             if(tb!=1) sendSTT();
000454 d479      	RCALL SUBOPT_0x33
000455 f009      	BREQ _0x8A
000456 dde9      	RCALL _sendSTT
                 ; 0000 01AE             clearBuffer();
                 _0x8A:
000457 c00a      	RJMP _0x125
                 ; 0000 01AF             result=callFlag=0;
                 ; 0000 01B0             flag=0;
                 ; 0000 01B1         }
                 ; 0000 01B2         else
                 _0x83:
                 ; 0000 01B3         {
                 ; 0000 01B4             LOAD1=1;
000458 9aa8      	SBI  0x15,0
                 ; 0000 01B5             LOAD2=1;
000459 d479      	RCALL SUBOPT_0x34
                 ; 0000 01B6             save1=save2=1;
00045a d3b3      	RCALL SUBOPT_0x1
00045b d4ff      	RCALL __EEPROMWRB
                 ; 0000 01B7             //printf("on");
                 ; 0000 01B8             printf("ATH\r\n");
00045c d45c      	RCALL SUBOPT_0x2E
                 ; 0000 01B9             delay_ms(100);
00045d e6a4      	LDI  R26,LOW(100)
00045e d3b5      	RCALL SUBOPT_0x3
                 ; 0000 01BA             if(tb!=1) sendSTT();
00045f d46e      	RCALL SUBOPT_0x33
000460 f009      	BREQ _0x90
000461 ddde      	RCALL _sendSTT
                 ; 0000 01BB             clearBuffer();
                 _0x90:
                 _0x125:
000462 ddb8      	RCALL _clearBuffer
                 ; 0000 01BC             result=callFlag=0;
000463 d458      	RCALL SUBOPT_0x2F
                 ; 0000 01BD             flag=0;
                 ; 0000 01BE         }
                 ; 0000 01BF     }
                 ; 0000 01C0 }
                 _0x82:
                 _0x2080003:
000464 9119      	LD   R17,Y+
000465 9508      	RET
                 ; .FEND
                 ;
                 ;unsigned char checkStatus()
                 ; 0000 01C3 {
                 _checkStatus:
                 ; .FSTART _checkStatus
                 ; 0000 01C4       if(save1==1)
000466 d45a      	RCALL SUBOPT_0x30
000467 f439      	BRNE _0x91
                 ; 0000 01C5       {
                 ; 0000 01C6         if(save2==1)
000468 d45c      	RCALL SUBOPT_0x31
000469 f411      	BRNE _0x92
                 ; 0000 01C7         { // thiet bi 1 va 2 dang bat
                 ; 0000 01C8           return 1;
00046a e0e1      	LDI  R30,LOW(1)
00046b 9508      	RET
                 ; 0000 01C9         }
                 ; 0000 01CA         else
                 _0x92:
                 ; 0000 01CB         { //thiet bi 1 dang bat, thiet bi 2 dang tat
                 ; 0000 01CC           return 2;
00046c e0e2      	LDI  R30,LOW(2)
00046d 9508      	RET
                 ; 0000 01CD         }
                 ; 0000 01CE       }
                 ; 0000 01CF       else
00046e c006      	RJMP _0x94
                 _0x91:
                 ; 0000 01D0       {
                 ; 0000 01D1         if(save2==1)
00046f d455      	RCALL SUBOPT_0x31
000470 f411      	BRNE _0x95
                 ; 0000 01D2         { //thiet bi 1 dang tat, thiet bi 2 dang bat
                 ; 0000 01D3           return 3;
000471 e0e3      	LDI  R30,LOW(3)
000472 9508      	RET
                 ; 0000 01D4         }
                 ; 0000 01D5         else
                 _0x95:
                 ; 0000 01D6         { //thiet bi 1 va 2 dang tat
                 ; 0000 01D7           return 4;
000473 e0e4      	LDI  R30,LOW(4)
000474 9508      	RET
                 ; 0000 01D8         }
                 ; 0000 01D9       }
                 _0x94:
                 ; 0000 01DA }
000475 9508      	RET
                 ; .FEND
                 ;
                 ;void smsHandle()
                 ; 0000 01DD {
                 _smsHandle:
                 ; .FSTART _smsHandle
                 ; 0000 01DE     unsigned char i,poskey,i2,endstr=0,lastspace,firstspace,n=0;
                 ; 0000 01DF     //char ndt1[11],ndt2[11],ndt3[11];
                 ; 0000 01E0     poskey=11;
000476 9721      	SBIW R28,1
000477 e0e0      	LDI  R30,LOW(0)
000478 83e8      	ST   Y,R30
000479 d4f6      	RCALL __SAVELOCR6
                 ;	i -> R17
                 ;	poskey -> R16
                 ;	i2 -> R19
                 ;	endstr -> R18
                 ;	lastspace -> R21
                 ;	firstspace -> R20
                 ;	n -> Y+6
00047a e020      	LDI  R18,0
00047b e00b      	LDI  R16,LOW(11)
                 ; 0000 01E1     lastspace=strrpos(msgStr,32);
00047c d419      	RCALL SUBOPT_0x23
00047d e2a0      	LDI  R26,LOW(32)
00047e d371      	RCALL _strrpos
00047f 2f5e      	MOV  R21,R30
                 ; 0000 01E2     firstspace=strpos(msgStr,32);
000480 d415      	RCALL SUBOPT_0x23
000481 e2a0      	LDI  R26,LOW(32)
000482 d35e      	RCALL _strpos
000483 2f4e      	MOV  R20,R30
                 ; 0000 01E3     endstr=strrpos(msgStr,'.');
000484 d411      	RCALL SUBOPT_0x23
000485 e2ae      	LDI  R26,LOW(46)
000486 d369      	RCALL _strrpos
000487 2f2e      	MOV  R18,R30
                 ; 0000 01E4 
                 ; 0000 01E5     for(i=0;i<endstr-5;i++)
000488 e010      	LDI  R17,LOW(0)
                 _0x98:
000489 d3c2      	RCALL SUBOPT_0x13
00048a 9735      	SBIW R30,5
00048b d41e      	RCALL SUBOPT_0x29
00048c 17ae      	CP   R26,R30
00048d 07bf      	CPC  R27,R31
00048e f454      	BRGE _0x99
                 ; 0000 01E6         {
                 ; 0000 01E7           content[i]=msgStr[5+i];
00048f d41a      	RCALL SUBOPT_0x29
000490 54a6      	SUBI R26,LOW(-_content)
000491 4fbd      	SBCI R27,HIGH(-_content)
000492 d38b      	RCALL SUBOPT_0x6
                +
000493 51e4     +SUBI R30 , LOW ( - _msgStr - ( 5 ) )
000494 4ffd     +SBCI R31 , HIGH ( - _msgStr - ( 5 ) )
                 	__ADDW1MN _msgStr,5
000495 81e0      	LD   R30,Z
000496 93ec      	ST   X,R30
                 ; 0000 01E8         }
000497 5f1f      	SUBI R17,-1
000498 cff0      	RJMP _0x98
                 _0x99:
                 ; 0000 01E9     for(i2=0;i2<(lastspace-(firstspace+1));i2++)
000499 e030      	LDI  R19,LOW(0)
                 _0x9B:
00049a 2fa5      	MOV  R26,R21
00049b 27bb      	CLR  R27
00049c 2fe4      	MOV  R30,R20
00049d e0f0      	LDI  R31,0
00049e 9631      	ADIW R30,1
00049f d3dd      	RCALL SUBOPT_0x1C
0004a0 d3e5      	RCALL SUBOPT_0x1E
0004a1 17ae      	CP   R26,R30
0004a2 07bf      	CPC  R27,R31
0004a3 f474      	BRGE _0x9C
                 ; 0000 01EA         {
                 ; 0000 01EB           syntax[i2]=msgStr[firstspace+1+i2];
0004a4 d3e4      	RCALL SUBOPT_0x1F
0004a5 53e7      	SUBI R30,LOW(-_syntax)
0004a6 4ffd      	SBCI R31,HIGH(-_syntax)
0004a7 010f      	MOVW R0,R30
0004a8 2fe4      	MOV  R30,R20
0004a9 e0f0      	LDI  R31,0
0004aa d395      	RCALL SUBOPT_0xF
0004ab d3dd      	RCALL SUBOPT_0x1F
0004ac d3f7      	RCALL SUBOPT_0x27
0004ad d373      	RCALL SUBOPT_0x7
0004ae 81e0      	LD   R30,Z
0004af d37b      	RCALL SUBOPT_0xA
                 ; 0000 01EC         }
0004b0 5f3f      	SUBI R19,-1
0004b1 cfe8      	RJMP _0x9B
                 _0x9C:
                 ; 0000 01ED     for(i2=(lastspace-(firstspace+1));i2<15;i2++)
0004b2 2fa4      	MOV  R26,R20
0004b3 5faf      	SUBI R26,-LOW(1)
0004b4 2fe5      	MOV  R30,R21
0004b5 1bea      	SUB  R30,R26
0004b6 2f3e      	MOV  R19,R30
                 _0x9E:
0004b7 303f      	CPI  R19,15
0004b8 f438      	BRSH _0x9F
                 ; 0000 01EE         {
                 ; 0000 01EF             syntax[i2]=0;
0004b9 d3cf      	RCALL SUBOPT_0x1F
0004ba 53e7      	SUBI R30,LOW(-_syntax)
0004bb 4ffd      	SBCI R31,HIGH(-_syntax)
0004bc e0a0      	LDI  R26,LOW(0)
0004bd 83a0      	STD  Z+0,R26
                 ; 0000 01F0         }
0004be 5f3f      	SUBI R19,-1
0004bf cff7      	RJMP _0x9E
                 _0x9F:
                 ; 0000 01F1     if(msgStr[0]=='c' && msgStr[1]=='t' && msgStr[2]=='a' && msgStr[3]=='G')
0004c0 91a0 02e7 	LDS  R26,_msgStr
0004c2 36a3      	CPI  R26,LOW(0x63)
0004c3 f461      	BRNE _0xA1
                +
0004c4 91a0 02e8+LDS R26 , _msgStr + ( 1 )
                 	__GETB2MN _msgStr,1
0004c6 37a4      	CPI  R26,LOW(0x74)
0004c7 f441      	BRNE _0xA1
                +
0004c8 91a0 02e9+LDS R26 , _msgStr + ( 2 )
                 	__GETB2MN _msgStr,2
0004ca 36a1      	CPI  R26,LOW(0x61)
0004cb f421      	BRNE _0xA1
                +
0004cc 91a0 02ea+LDS R26 , _msgStr + ( 3 )
                 	__GETB2MN _msgStr,3
0004ce 34a7      	CPI  R26,LOW(0x47)
0004cf f009      	BREQ _0xA2
                 _0xA1:
0004d0 c014      	RJMP _0xA0
                 _0xA2:
                 ; 0000 01F2     {
                 ; 0000 01F3       char rs;
                 ; 0000 01F4       for(rs=0;rs<4;rs++)
0004d1 9721      	SBIW R28,1
                 ;	n -> Y+7
                 ;	rs -> Y+0
0004d2 e0e0      	LDI  R30,LOW(0)
0004d3 83e8      	ST   Y,R30
                 _0xA4:
0004d4 81a8      	LD   R26,Y
0004d5 30a4      	CPI  R26,LOW(0x4)
0004d6 f440      	BRSH _0xA5
                 ; 0000 01F5       {
                 ; 0000 01F6         password[rs]='0';
0004d7 e0b0      	LDI  R27,0
0004d8 5da0      	SUBI R26,LOW(-_password)
0004d9 4fbf      	SBCI R27,HIGH(-_password)
0004da d3fd      	RCALL SUBOPT_0x35
                 ; 0000 01F7       }
0004db 81e8      	LD   R30,Y
0004dc 5fef      	SUBI R30,-LOW(1)
0004dd 83e8      	ST   Y,R30
0004de cff5      	RJMP _0xA4
                 _0xA5:
                 ; 0000 01F8       //printf("reset success");
                 ; 0000 01F9       sendSMS(phoneNumber,"mat khau: 0000");
0004df d34e      	RCALL SUBOPT_0xB
                +
0004e0 edae     +LDI R26 , LOW ( _0xA6 + ( 0 ) )
0004e1 e0b1     +LDI R27 , HIGH ( _0xA6 + ( 0 ) )
                 	__POINTW2MN _0xA6,0
0004e2 d2a4      	RCALL _sendSMS
                 ; 0000 01FA       clearBuffer();
0004e3 d3b7      	RCALL SUBOPT_0x25
                 ; 0000 01FB       flag=0;
                 ; 0000 01FC       smsFlag=0;
                 ; 0000 01FD     }
0004e4 9621      	ADIW R28,1
                 ; 0000 01FE     checkPassword();
                 _0xA0:
0004e5 dedd      	RCALL _checkPassword
                 ; 0000 01FF     while(checkpass==0)
                 _0xA7:
0004e6 2077      	TST  R7
0004e7 f499      	BRNE _0xA9
                 ; 0000 0200     {  checkPassword();
0004e8 deda      	RCALL _checkPassword
                 ; 0000 0201        n++;
0004e9 81ee      	LDD  R30,Y+6
0004ea 5fef      	SUBI R30,-LOW(1)
0004eb 83ee      	STD  Y+6,R30
                 ; 0000 0202        delay_ms(50);
0004ec d35b      	RCALL SUBOPT_0x11
                 ; 0000 0203        if(n>40)
0004ed 81ae      	LDD  R26,Y+6
0004ee 32a9      	CPI  R26,LOW(0x29)
0004ef f050      	BRLO _0xAA
                 ; 0000 0204        {
                 ; 0000 0205          //printf("password error");
                 ; 0000 0206          sendSMS(phoneNumber,"mat khau sai");
0004f0 d33d      	RCALL SUBOPT_0xB
                +
0004f1 eead     +LDI R26 , LOW ( _0xA6 + ( 15 ) )
0004f2 e0b1     +LDI R27 , HIGH ( _0xA6 + ( 15 ) )
                 	__POINTW2MN _0xA6,15
0004f3 d293      	RCALL _sendSMS
                 ; 0000 0207          clearBuffer();
0004f4 dd26      	RCALL _clearBuffer
                 ; 0000 0208          checkpass=0;
0004f5 2477      	CLR  R7
                 ; 0000 0209          flag=0;
0004f6 2444      	CLR  R4
                 ; 0000 020A          smsFlag=0;
0004f7 94e8      	CLT
0004f8 f821      	BLD  R2,1
                 ; 0000 020B          break;
0004f9 c001      	RJMP _0xA9
                 ; 0000 020C        }
                 ; 0000 020D     }
                 _0xAA:
0004fa cfeb      	RJMP _0xA7
                 _0xA9:
                 ; 0000 020E     if(checkpass==1)
0004fb e0e1      	LDI  R30,LOW(1)
0004fc 15e7      	CP   R30,R7
0004fd f009      	BREQ PC+2
0004fe c120      	RJMP _0xAB
                 ; 0000 020F     {
                 ; 0000 0210         if(strcmp(content,"on1")==0)
0004ff d3db      	RCALL SUBOPT_0x36
                +
000500 efaa     +LDI R26 , LOW ( _0xA6 + ( 28 ) )
000501 e0b1     +LDI R27 , HIGH ( _0xA6 + ( 28 ) )
                 	__POINTW2MN _0xA6,28
000502 d335      	RCALL SUBOPT_0xD
000503 f439      	BRNE _0xAC
                 ; 0000 0211         {
                 ; 0000 0212           LOAD1=1;
000504 9aa8      	SBI  0x15,0
                 ; 0000 0213           save1=1;
000505 d308      	RCALL SUBOPT_0x1
000506 d3d7      	RCALL SUBOPT_0x37
                 ; 0000 0214           if(tb!=1) sendSTT();
000507 d3c6      	RCALL SUBOPT_0x33
000508 f009      	BREQ _0xAF
000509 dd36      	RCALL _sendSTT
                 ; 0000 0215           clearBuffer();
                 _0xAF:
00050a c110      	RJMP _0x126
                 ; 0000 0216           flag=0;
                 ; 0000 0217           smsFlag=0;
                 ; 0000 0218 
                 ; 0000 0219         }else{
                 _0xAC:
                 ; 0000 021A            if(strcmp(content,"on2")==0)
00050b d3cf      	RCALL SUBOPT_0x36
                +
00050c efae     +LDI R26 , LOW ( _0xA6 + ( 32 ) )
00050d e0b1     +LDI R27 , HIGH ( _0xA6 + ( 32 ) )
                 	__POINTW2MN _0xA6,32
00050e d329      	RCALL SUBOPT_0xD
00050f f429      	BRNE _0xB1
                 ; 0000 021B             {
                 ; 0000 021C               LOAD2=1;
000510 d3c2      	RCALL SUBOPT_0x34
                 ; 0000 021D               save2=1;
                 ; 0000 021E               if(tb!=1) sendSTT();
000511 d3bc      	RCALL SUBOPT_0x33
000512 f009      	BREQ _0xB4
000513 dd2c      	RCALL _sendSTT
                 ; 0000 021F               clearBuffer();
                 _0xB4:
000514 c106      	RJMP _0x126
                 ; 0000 0220               flag=0;
                 ; 0000 0221               smsFlag=0;
                 ; 0000 0222             }else{
                 _0xB1:
                 ; 0000 0223                 if(strcmp(content,"off1")==0)
000515 d3c5      	RCALL SUBOPT_0x36
                +
000516 e0a2     +LDI R26 , LOW ( _0xA6 + ( 36 ) )
000517 e0b2     +LDI R27 , HIGH ( _0xA6 + ( 36 ) )
                 	__POINTW2MN _0xA6,36
000518 d31f      	RCALL SUBOPT_0xD
000519 f439      	BRNE _0xB6
                 ; 0000 0224                 {
                 ; 0000 0225                   LOAD1=0;
00051a 98a8      	CBI  0x15,0
                 ; 0000 0226                   save1=0;
00051b d2f2      	RCALL SUBOPT_0x1
00051c d3c4      	RCALL SUBOPT_0x38
                 ; 0000 0227                   if(tb!=1) sendSTT();
00051d d3b0      	RCALL SUBOPT_0x33
00051e f009      	BREQ _0xB9
00051f dd20      	RCALL _sendSTT
                 ; 0000 0228                   clearBuffer();
                 _0xB9:
000520 c0fa      	RJMP _0x126
                 ; 0000 0229                   flag=0;
                 ; 0000 022A                   smsFlag=0;
                 ; 0000 022B                 } else{
                 _0xB6:
                 ; 0000 022C 
                 ; 0000 022D                     if(strcmp(content,"off2")==0)
000521 d3b9      	RCALL SUBOPT_0x36
                +
000522 e0a7     +LDI R26 , LOW ( _0xA6 + ( 41 ) )
000523 e0b2     +LDI R27 , HIGH ( _0xA6 + ( 41 ) )
                 	__POINTW2MN _0xA6,41
000524 d313      	RCALL SUBOPT_0xD
000525 f429      	BRNE _0xBB
                 ; 0000 022E                     {
                 ; 0000 022F                       LOAD2=0;
000526 d3a2      	RCALL SUBOPT_0x32
                 ; 0000 0230                       save2=0;
                 ; 0000 0231                       if(tb!=1) sendSTT();
000527 d3a6      	RCALL SUBOPT_0x33
000528 f009      	BREQ _0xBE
000529 dd16      	RCALL _sendSTT
                 ; 0000 0232                       clearBuffer();
                 _0xBE:
00052a c0f0      	RJMP _0x126
                 ; 0000 0233                       flag=0;
                 ; 0000 0234                       smsFlag=0;
                 ; 0000 0235                     }else {
                 _0xBB:
                 ; 0000 0236 
                 ; 0000 0237                         if(strcmp(content,"on")==0)
00052b d3af      	RCALL SUBOPT_0x36
                +
00052c e0ac     +LDI R26 , LOW ( _0xA6 + ( 46 ) )
00052d e0b2     +LDI R27 , HIGH ( _0xA6 + ( 46 ) )
                 	__POINTW2MN _0xA6,46
00052e d309      	RCALL SUBOPT_0xD
00052f f451      	BRNE _0xC0
                 ; 0000 0238                         {
                 ; 0000 0239                           LOAD1=1;
000530 9aa8      	SBI  0x15,0
                 ; 0000 023A                           LOAD2=1;
000531 9aa9      	SBI  0x15,1
                 ; 0000 023B                           save1=1;
000532 d2db      	RCALL SUBOPT_0x1
000533 d3aa      	RCALL SUBOPT_0x37
                 ; 0000 023C                           save2=1;
000534 d2dc      	RCALL SUBOPT_0x2
000535 d3a8      	RCALL SUBOPT_0x37
                 ; 0000 023D                           if(tb!=1) sendSTT();
000536 d397      	RCALL SUBOPT_0x33
000537 f009      	BREQ _0xC5
000538 dd07      	RCALL _sendSTT
                 ; 0000 023E                           clearBuffer();
                 _0xC5:
000539 c0e1      	RJMP _0x126
                 ; 0000 023F                           flag=0;
                 ; 0000 0240                           smsFlag=0;
                 ; 0000 0241                         }else{
                 _0xC0:
                 ; 0000 0242 
                 ; 0000 0243                             if(strcmp(content,"off")==0)
00053a d3a0      	RCALL SUBOPT_0x36
                +
00053b e0af     +LDI R26 , LOW ( _0xA6 + ( 49 ) )
00053c e0b2     +LDI R27 , HIGH ( _0xA6 + ( 49 ) )
                 	__POINTW2MN _0xA6,49
00053d d2fa      	RCALL SUBOPT_0xD
00053e f451      	BRNE _0xC7
                 ; 0000 0244                             {
                 ; 0000 0245                               LOAD1=0;
00053f 98a8      	CBI  0x15,0
                 ; 0000 0246                               LOAD2=0;
000540 98a9      	CBI  0x15,1
                 ; 0000 0247                               save1=0;
000541 d2cc      	RCALL SUBOPT_0x1
000542 d39e      	RCALL SUBOPT_0x38
                 ; 0000 0248                               save2=0;
000543 d2cd      	RCALL SUBOPT_0x2
000544 d39c      	RCALL SUBOPT_0x38
                 ; 0000 0249                               if(tb!=1) sendSTT();
000545 d388      	RCALL SUBOPT_0x33
000546 f009      	BREQ _0xCC
000547 dcf8      	RCALL _sendSTT
                 ; 0000 024A                               clearBuffer();
                 _0xCC:
000548 c0d2      	RJMP _0x126
                 ; 0000 024B                               flag=0;
                 ; 0000 024C                               smsFlag=0;
                 ; 0000 024D                             }
                 ; 0000 024E                             else
                 _0xC7:
                 ; 0000 024F                             {
                 ; 0000 0250                               if(strcmp(syntax,"doimk")==0)
000549 d39a      	RCALL SUBOPT_0x39
                +
00054a e1a3     +LDI R26 , LOW ( _0xA6 + ( 53 ) )
00054b e0b2     +LDI R27 , HIGH ( _0xA6 + ( 53 ) )
                 	__POINTW2MN _0xA6,53
00054c d2eb      	RCALL SUBOPT_0xD
00054d f519      	BRNE _0xCE
                 ; 0000 0251                                 {
                 ; 0000 0252                                   for(i=0;i<4;i++)
00054e e010      	LDI  R17,LOW(0)
                 _0xD0:
00054f 3014      	CPI  R17,4
000550 f4e0      	BRSH _0xD1
                 ; 0000 0253                                   {
                 ; 0000 0254                                     if(msgStr[poskey+i]<48 || msgStr[poskey+i]>57) password[i]='0';
000551 2fa0      	MOV  R26,R16
000552 27bb      	CLR  R27
000553 d2ca      	RCALL SUBOPT_0x6
000554 d34f      	RCALL SUBOPT_0x27
000555 d2cb      	RCALL SUBOPT_0x7
000556 d31b      	RCALL SUBOPT_0x19
000557 f010      	BRLO _0xD3
000558 d31c      	RCALL SUBOPT_0x1A
000559 f028      	BRLO _0xD2
                 _0xD3:
00055a d34f      	RCALL SUBOPT_0x29
00055b 5da0      	SUBI R26,LOW(-_password)
00055c 4fbf      	SBCI R27,HIGH(-_password)
00055d e3e0      	LDI  R30,LOW(48)
00055e c00b      	RJMP _0x127
                 ; 0000 0255                                     else password[i]=msgStr[poskey+i];
                 _0xD2:
00055f d2be      	RCALL SUBOPT_0x6
000560 5de0      	SUBI R30,LOW(-_password)
000561 4fff      	SBCI R31,HIGH(-_password)
000562 010f      	MOVW R0,R30
000563 2fa0      	MOV  R26,R16
000564 27bb      	CLR  R27
000565 d2b8      	RCALL SUBOPT_0x6
000566 d33d      	RCALL SUBOPT_0x27
000567 d2b9      	RCALL SUBOPT_0x7
000568 81e0      	LD   R30,Z
000569 01d0      	MOVW R26,R0
                 _0x127:
00056a d3f0      	RCALL __EEPROMWRB
                 ; 0000 0256                                   }
00056b 5f1f      	SUBI R17,-1
00056c cfe2      	RJMP _0xD0
                 _0xD1:
                 ; 0000 0257                                   //sendSMS(phoneNumber,"Doi mat khau thanh cong");
                 ; 0000 0258                                   //printf("success:");
                 ; 0000 0259                                   sendSMS(phoneNumber,"Doi mat khau thanh cong");
00056d d2c0      	RCALL SUBOPT_0xB
                +
00056e e1a9     +LDI R26 , LOW ( _0xA6 + ( 59 ) )
00056f e0b2     +LDI R27 , HIGH ( _0xA6 + ( 59 ) )
                 	__POINTW2MN _0xA6,59
000570 c0a9      	RJMP _0x128
                 ; 0000 025A                                   clearBuffer();
                 ; 0000 025B                                   flag=0;
                 ; 0000 025C                                   smsFlag=0;
                 ; 0000 025D 
                 ; 0000 025E                                 }
                 ; 0000 025F                                 else
                 _0xCE:
                 ; 0000 0260                                 {
                 ; 0000 0261                                   if(strcmp(syntax,"sdt1")==0)
000571 d372      	RCALL SUBOPT_0x39
                +
000572 e3a1     +LDI R26 , LOW ( _0xA6 + ( 83 ) )
000573 e0b2     +LDI R27 , HIGH ( _0xA6 + ( 83 ) )
                 	__POINTW2MN _0xA6,83
000574 d2c3      	RCALL SUBOPT_0xD
000575 f4c9      	BRNE _0xD7
                 ; 0000 0262                                   {
                 ; 0000 0263                                     for(i=0;i<11;i++)
000576 e010      	LDI  R17,LOW(0)
                 _0xD9:
000577 301b      	CPI  R17,11
000578 f490      	BRSH _0xDA
                 ; 0000 0264                                     {
                 ; 0000 0265                                       if(msgStr[10+i]<48||msgStr[10+i]>57) sdt1[i]=0;
000579 d2a4      	RCALL SUBOPT_0x6
00057a d36c      	RCALL SUBOPT_0x3A
00057b d2f6      	RCALL SUBOPT_0x19
00057c f010      	BRLO _0xDC
00057d d2f7      	RCALL SUBOPT_0x1A
00057e f020      	BRLO _0xDB
                 _0xDC:
00057f d32a      	RCALL SUBOPT_0x29
000580 d32c      	RCALL SUBOPT_0x2A
000581 e0e0      	LDI  R30,LOW(0)
000582 c005      	RJMP _0x129
                 ; 0000 0266                                       else sdt1[i]=msgStr[10+i];
                 _0xDB:
000583 d326      	RCALL SUBOPT_0x29
000584 d328      	RCALL SUBOPT_0x2A
000585 d298      	RCALL SUBOPT_0x6
000586 d360      	RCALL SUBOPT_0x3A
000587 81e0      	LD   R30,Z
                 _0x129:
000588 d3d2      	RCALL __EEPROMWRB
                 ; 0000 0267                                     }
000589 5f1f      	SUBI R17,-1
00058a cfec      	RJMP _0xD9
                 _0xDA:
                 ; 0000 0268                                     //puts(msgStr);
                 ; 0000 0269                                     //printf("\n");
                 ; 0000 026A                                     //puts(phoneNumber);
                 ; 0000 026B 
                 ; 0000 026C                                     sendSMS(phoneNumber,"Da them sdt1");
00058b d2a2      	RCALL SUBOPT_0xB
                +
00058c e3a6     +LDI R26 , LOW ( _0xA6 + ( 88 ) )
00058d e0b2     +LDI R27 , HIGH ( _0xA6 + ( 88 ) )
                 	__POINTW2MN _0xA6,88
00058e c08b      	RJMP _0x128
                 ; 0000 026D                                     clearBuffer();
                 ; 0000 026E                                     flag=0;
                 ; 0000 026F                                     smsFlag=0;
                 ; 0000 0270                                   }
                 ; 0000 0271                                   else
                 _0xD7:
                 ; 0000 0272                                   {
                 ; 0000 0273                                      if(strcmp(syntax,"sdt2")==0)
00058f d354      	RCALL SUBOPT_0x39
                +
000590 e4a3     +LDI R26 , LOW ( _0xA6 + ( 101 ) )
000591 e0b2     +LDI R27 , HIGH ( _0xA6 + ( 101 ) )
                 	__POINTW2MN _0xA6,101
000592 d2a5      	RCALL SUBOPT_0xD
000593 f4c9      	BRNE _0xE0
                 ; 0000 0274                                       {
                 ; 0000 0275                                         for(i=0;i<11;i++)
000594 e010      	LDI  R17,LOW(0)
                 _0xE2:
000595 301b      	CPI  R17,11
000596 f490      	BRSH _0xE3
                 ; 0000 0276                                         {
                 ; 0000 0277                                           if(msgStr[10+i]<48||msgStr[10+i]>57) sdt2[i]=0;
000597 d286      	RCALL SUBOPT_0x6
000598 d34e      	RCALL SUBOPT_0x3A
000599 d2d8      	RCALL SUBOPT_0x19
00059a f010      	BRLO _0xE5
00059b d2d9      	RCALL SUBOPT_0x1A
00059c f020      	BRLO _0xE4
                 _0xE5:
00059d d30c      	RCALL SUBOPT_0x29
00059e d314      	RCALL SUBOPT_0x2C
00059f e0e0      	LDI  R30,LOW(0)
0005a0 c005      	RJMP _0x12A
                 ; 0000 0278                                           else sdt2[i]=msgStr[10+i];
                 _0xE4:
0005a1 d308      	RCALL SUBOPT_0x29
0005a2 d310      	RCALL SUBOPT_0x2C
0005a3 d27a      	RCALL SUBOPT_0x6
0005a4 d342      	RCALL SUBOPT_0x3A
0005a5 81e0      	LD   R30,Z
                 _0x12A:
0005a6 d3b4      	RCALL __EEPROMWRB
                 ; 0000 0279                                         }
0005a7 5f1f      	SUBI R17,-1
0005a8 cfec      	RJMP _0xE2
                 _0xE3:
                 ; 0000 027A //                                        printf("\nsdt2:");
                 ; 0000 027B //                                        puts(ndt2);
                 ; 0000 027C                                         sendSMS(phoneNumber,"Da them sdt2");
0005a9 d284      	RCALL SUBOPT_0xB
                +
0005aa e4a8     +LDI R26 , LOW ( _0xA6 + ( 106 ) )
0005ab e0b2     +LDI R27 , HIGH ( _0xA6 + ( 106 ) )
                 	__POINTW2MN _0xA6,106
0005ac c06d      	RJMP _0x128
                 ; 0000 027D                                         clearBuffer();
                 ; 0000 027E                                         flag=0;
                 ; 0000 027F                                         smsFlag=0;
                 ; 0000 0280                                       }
                 ; 0000 0281                                       else
                 _0xE0:
                 ; 0000 0282                                       {
                 ; 0000 0283                                          if(strcmp(syntax,"sdt3")==0)
0005ad d336      	RCALL SUBOPT_0x39
                +
0005ae e5a5     +LDI R26 , LOW ( _0xA6 + ( 119 ) )
0005af e0b2     +LDI R27 , HIGH ( _0xA6 + ( 119 ) )
                 	__POINTW2MN _0xA6,119
0005b0 d287      	RCALL SUBOPT_0xD
0005b1 f4c9      	BRNE _0xE9
                 ; 0000 0284                                           {
                 ; 0000 0285                                             for(i=0;i<11;i++)
0005b2 e010      	LDI  R17,LOW(0)
                 _0xEB:
0005b3 301b      	CPI  R17,11
0005b4 f490      	BRSH _0xEC
                 ; 0000 0286                                             {
                 ; 0000 0287                                               if(msgStr[10+i]<48||msgStr[10+i]>57) sdt3[i]=0;
0005b5 d268      	RCALL SUBOPT_0x6
0005b6 d330      	RCALL SUBOPT_0x3A
0005b7 d2ba      	RCALL SUBOPT_0x19
0005b8 f010      	BRLO _0xEE
0005b9 d2bb      	RCALL SUBOPT_0x1A
0005ba f020      	BRLO _0xED
                 _0xEE:
0005bb d2ee      	RCALL SUBOPT_0x29
0005bc d2f9      	RCALL SUBOPT_0x2D
0005bd e0e0      	LDI  R30,LOW(0)
0005be c005      	RJMP _0x12B
                 ; 0000 0288                                               else sdt3[i]=msgStr[10+i];
                 _0xED:
0005bf d2ea      	RCALL SUBOPT_0x29
0005c0 d2f5      	RCALL SUBOPT_0x2D
0005c1 d25c      	RCALL SUBOPT_0x6
0005c2 d324      	RCALL SUBOPT_0x3A
0005c3 81e0      	LD   R30,Z
                 _0x12B:
0005c4 d396      	RCALL __EEPROMWRB
                 ; 0000 0289                                             }
0005c5 5f1f      	SUBI R17,-1
0005c6 cfec      	RJMP _0xEB
                 _0xEC:
                 ; 0000 028A                                             //printf("sdt3:");
                 ; 0000 028B                                             //puts(ndt3);
                 ; 0000 028C                                             sendSMS(phoneNumber,"Da them sdt3");
0005c7 d266      	RCALL SUBOPT_0xB
                +
0005c8 e5aa     +LDI R26 , LOW ( _0xA6 + ( 124 ) )
0005c9 e0b2     +LDI R27 , HIGH ( _0xA6 + ( 124 ) )
                 	__POINTW2MN _0xA6,124
0005ca c04f      	RJMP _0x128
                 ; 0000 028D                                             clearBuffer();
                 ; 0000 028E                                             flag=0;
                 ; 0000 028F                                             smsFlag=0;
                 ; 0000 0290                                           }
                 ; 0000 0291                                           else
                 _0xE9:
                 ; 0000 0292                                           {
                 ; 0000 0293                                                if(strcmp(content,"kttk")==0)
0005cb d30f      	RCALL SUBOPT_0x36
                +
0005cc e6a7     +LDI R26 , LOW ( _0xA6 + ( 137 ) )
0005cd e0b2     +LDI R27 , HIGH ( _0xA6 + ( 137 ) )
                 	__POINTW2MN _0xA6,137
0005ce d269      	RCALL SUBOPT_0xD
0005cf f419      	BRNE _0xF2
                 ; 0000 0294                                                {
                 ; 0000 0295                                                  KTTK();
0005d0 d1da      	RCALL _KTTK
                 ; 0000 0296                                                  clearBuffer();
0005d1 dc49      	RCALL _clearBuffer
                 ; 0000 0297                                                  smsFlag=0;
0005d2 c04a      	RJMP _0x12C
                 ; 0000 0298                                                }
                 ; 0000 0299                                                else
                 _0xF2:
                 ; 0000 029A                                                {
                 ; 0000 029B                                                  if(strcmp(syntax,"naptien")==0)
0005d3 d310      	RCALL SUBOPT_0x39
                +
0005d4 e6ac     +LDI R26 , LOW ( _0xA6 + ( 142 ) )
0005d5 e0b2     +LDI R27 , HIGH ( _0xA6 + ( 142 ) )
                 	__POINTW2MN _0xA6,142
0005d6 d261      	RCALL SUBOPT_0xD
0005d7 f4e9      	BRNE _0xF4
                 ; 0000 029C                                                  {  char mathe[13];
                 ; 0000 029D                                                     //unsigned char mt;
                 ; 0000 029E                                                     for(i=0;i<13;i++)
0005d8 972d      	SBIW R28,13
                 ;	n -> Y+19
                 ;	mathe -> Y+0
0005d9 e010      	LDI  R17,LOW(0)
                 _0xF6:
0005da 301d      	CPI  R17,13
0005db f4a0      	BRSH _0xF7
                 ; 0000 029F                                                     {
                 ; 0000 02A0                                                       if(msgStr[13+i]<48||msgStr[13+i]>57) mathe[i]='0';
0005dc d241      	RCALL SUBOPT_0x6
                +
0005dd 50ec     +SUBI R30 , LOW ( - _msgStr - ( 13 ) )
0005de 4ffd     +SBCI R31 , HIGH ( - _msgStr - ( 13 ) )
                 	__ADDW1MN _msgStr,13
0005df d292      	RCALL SUBOPT_0x19
0005e0 f010      	BRLO _0xF9
0005e1 d293      	RCALL SUBOPT_0x1A
0005e2 f020      	BRLO _0xF8
                 _0xF9:
0005e3 d23a      	RCALL SUBOPT_0x6
0005e4 d305      	RCALL SUBOPT_0x3B
0005e5 e3e0      	LDI  R30,LOW(48)
0005e6 c006      	RJMP _0x12D
                 ; 0000 02A1                                                       else mathe[i]=msgStr[13+i];
                 _0xF8:
0005e7 d236      	RCALL SUBOPT_0x6
0005e8 d301      	RCALL SUBOPT_0x3B
0005e9 d234      	RCALL SUBOPT_0x6
                +
0005ea 50ec     +SUBI R30 , LOW ( - _msgStr - ( 13 ) )
0005eb 4ffd     +SBCI R31 , HIGH ( - _msgStr - ( 13 ) )
                 	__ADDW1MN _msgStr,13
0005ec 81e0      	LD   R30,Z
                 _0x12D:
0005ed 93ec      	ST   X,R30
                 ; 0000 02A2                                                     }
0005ee 5f1f      	SUBI R17,-1
0005ef cfea      	RJMP _0xF6
                 _0xF7:
                 ; 0000 02A3                                                     naptien(mathe);
0005f0 01de      	MOVW R26,R28
0005f1 d1c0      	RCALL _naptien
                 ; 0000 02A4                                                     clearBuffer();
0005f2 d2a8      	RCALL SUBOPT_0x25
                 ; 0000 02A5                                                     flag=0;
                 ; 0000 02A6                                                     smsFlag=0;
                 ; 0000 02A7                                                  }
0005f3 962d      	ADIW R28,13
                 ; 0000 02A8                                                  else
0005f4 c02a      	RJMP _0xFC
                 _0xF4:
                 ; 0000 02A9                                                  {
                 ; 0000 02AA                                                    if(strcmp(content,"thongbao on")==0)
0005f5 d2e5      	RCALL SUBOPT_0x36
                +
0005f6 e7a4     +LDI R26 , LOW ( _0xA6 + ( 150 ) )
0005f7 e0b2     +LDI R27 , HIGH ( _0xA6 + ( 150 ) )
                 	__POINTW2MN _0xA6,150
0005f8 d23f      	RCALL SUBOPT_0xD
0005f9 f451      	BRNE _0xFD
                 ; 0000 02AB                                                    {
                 ; 0000 02AC                                                      tb=2;
0005fa e2af      	LDI  R26,LOW(_tb)
0005fb e0b0      	LDI  R27,HIGH(_tb)
0005fc e0e2      	LDI  R30,LOW(2)
0005fd d35d      	RCALL __EEPROMWRB
                 ; 0000 02AD                                                      //printf("da bat thong bao");
                 ; 0000 02AE                                                      sendSMS(phoneNumber,"Bat thong bao");
0005fe d22f      	RCALL SUBOPT_0xB
                +
0005ff e8a0     +LDI R26 , LOW ( _0xA6 + ( 162 ) )
000600 e0b2     +LDI R27 , HIGH ( _0xA6 + ( 162 ) )
                 	__POINTW2MN _0xA6,162
000601 d185      	RCALL _sendSMS
                 ; 0000 02AF                                                      clearBuffer();
000602 dc18      	RCALL _clearBuffer
                 ; 0000 02B0                                                      smsFlag=0;
000603 c019      	RJMP _0x12C
                 ; 0000 02B1                                                    }
                 ; 0000 02B2                                                    else
                 _0xFD:
                 ; 0000 02B3                                                    {
                 ; 0000 02B4                                                      if(strcmp(content,"thongbao off")==0)
000604 d2d6      	RCALL SUBOPT_0x36
                +
000605 e8ae     +LDI R26 , LOW ( _0xA6 + ( 176 ) )
000606 e0b2     +LDI R27 , HIGH ( _0xA6 + ( 176 ) )
                 	__POINTW2MN _0xA6,176
000607 d230      	RCALL SUBOPT_0xD
000608 f439      	BRNE _0xFF
                 ; 0000 02B5                                                        {
                 ; 0000 02B6                                                          tb=1;
000609 e2af      	LDI  R26,LOW(_tb)
00060a e0b0      	LDI  R27,HIGH(_tb)
00060b d2d2      	RCALL SUBOPT_0x37
                 ; 0000 02B7                                                          //printf("da tat thong bao");
                 ; 0000 02B8                                                          sendSMS(phoneNumber,"Tat thong bao");
00060c d221      	RCALL SUBOPT_0xB
                +
00060d e9ab     +LDI R26 , LOW ( _0xA6 + ( 189 ) )
00060e e0b2     +LDI R27 , HIGH ( _0xA6 + ( 189 ) )
                 	__POINTW2MN _0xA6,189
00060f c00a      	RJMP _0x128
                 ; 0000 02B9                                                          clearBuffer();
                 ; 0000 02BA                                                          flag=0;
                 ; 0000 02BB                                                          smsFlag=0;
                 ; 0000 02BC                                                        }
                 ; 0000 02BD                                                        else
                 _0xFF:
                 ; 0000 02BE                                                        {
                 ; 0000 02BF                                                          if(strcmp(content,"kttt")==0)
000610 d2ca      	RCALL SUBOPT_0x36
                +
000611 eaa9     +LDI R26 , LOW ( _0xA6 + ( 203 ) )
000612 e0b2     +LDI R27 , HIGH ( _0xA6 + ( 203 ) )
                 	__POINTW2MN _0xA6,203
000613 d224      	RCALL SUBOPT_0xD
000614 f411      	BRNE _0x101
                 ; 0000 02C0                                                          {
                 ; 0000 02C1                                                            sendSTT();
000615 dc2a      	RCALL _sendSTT
                 ; 0000 02C2                                                            clearBuffer();
000616 c004      	RJMP _0x126
                 ; 0000 02C3                                                            flag=0;
                 ; 0000 02C4                                                            smsFlag=0;
                 ; 0000 02C5                                                          }
                 ; 0000 02C6                                                          else
                 _0x101:
                 ; 0000 02C7                                                          {
                 ; 0000 02C8                                                            //printf("Syntax error");
                 ; 0000 02C9                                                            sendSMS(phoneNumber,"Loi cu phap");
000617 d216      	RCALL SUBOPT_0xB
                +
000618 eaae     +LDI R26 , LOW ( _0xA6 + ( 208 ) )
000619 e0b2     +LDI R27 , HIGH ( _0xA6 + ( 208 ) )
                 	__POINTW2MN _0xA6,208
                 _0x128:
00061a d16c      	RCALL _sendSMS
                 ; 0000 02CA                                                            clearBuffer();
                 _0x126:
00061b dbff      	RCALL _clearBuffer
                 ; 0000 02CB                                                            flag=0;
00061c 2444      	CLR  R4
                 ; 0000 02CC                                                            smsFlag=0;
                 _0x12C:
00061d 94e8      	CLT
00061e f821      	BLD  R2,1
                 ; 0000 02CD                                                          }
                 ; 0000 02CE                                                        }
                 ; 0000 02CF                                                    }
                 ; 0000 02D0 
                 ; 0000 02D1                                                  }
                 _0xFC:
                 ; 0000 02D2 
                 ; 0000 02D3                                                }
                 ; 0000 02D4                                           }
                 ; 0000 02D5                                       }
                 ; 0000 02D6                                   }
                 ; 0000 02D7                                 }
                 ; 0000 02D8                             }
                 ; 0000 02D9                         }
                 ; 0000 02DA                     }
                 ; 0000 02DB                 }
                 ; 0000 02DC             }
                 ; 0000 02DD         }
                 ; 0000 02DE     }
                 ; 0000 02DF }
                 _0xAB:
00061f d357      	RCALL __LOADLOCR6
000620 9627      	ADIW R28,7
000621 9508      	RET
                 ; .FEND
                 
                 	.DSEG
                 _0xA6:
0001de           	.BYTE 0xDC
                 ;
                 ;
                 ;void main(void)
                 ; 0000 02E3 {
                 
                 	.CSEG
                 _main:
                 ; .FSTART _main
                 ; 0000 02E4 // Declare your local variables here
                 ; 0000 02E5 
                 ; 0000 02E6 // Input/Output Ports initialization
                 ; 0000 02E7 // Port B initialization
                 ; 0000 02E8 // Function: Bit7=In Bit6=In Bit5=In Bit4=In Bit3=In Bit2=In Bit1=In Bit0=In
                 ; 0000 02E9 DDRB=(0<<DDB7) | (0<<DDB6) | (0<<DDB5) | (0<<DDB4) | (1<<DDB3) | (1<<DDB2) | (1<<DDB1) | (1<<DDB0);
000622 e0ef      	LDI  R30,LOW(15)
000623 bbe7      	OUT  0x17,R30
                 ; 0000 02EA // State: Bit7=T Bit6=T Bit5=T Bit4=T Bit3=T Bit2=T Bit1=T Bit0=T
                 ; 0000 02EB PORTB=(0<<PORTB7) | (0<<PORTB6) | (0<<PORTB5) | (0<<PORTB4) | (0<<PORTB3) | (0<<PORTB2) | (0<<PORTB1) | (0<<PORTB0);
000624 e0e0      	LDI  R30,LOW(0)
000625 bbe8      	OUT  0x18,R30
                 ; 0000 02EC 
                 ; 0000 02ED // Port C initialization
                 ; 0000 02EE // Function: Bit6=In Bit5=In Bit4=In Bit3=In Bit2=In Bit1=Out Bit0=Out
                 ; 0000 02EF DDRC=(0<<DDC6) | (0<<DDC5) | (0<<DDC4) | (0<<DDC3) | (0<<DDC2) | (1<<DDC1) | (1<<DDC0);
000626 e0e3      	LDI  R30,LOW(3)
000627 bbe4      	OUT  0x14,R30
                 ; 0000 02F0 // State: Bit6=T Bit5=T Bit4=T Bit3=T Bit2=T Bit1=0 Bit0=0
                 ; 0000 02F1 PORTC=(0<<PORTC6) | (0<<PORTC5) | (0<<PORTC4) | (0<<PORTC3) | (0<<PORTC2) | (0<<PORTC1) | (0<<PORTC0);
000628 e0e0      	LDI  R30,LOW(0)
000629 bbe5      	OUT  0x15,R30
                 ; 0000 02F2 
                 ; 0000 02F3 // Port D initialization
                 ; 0000 02F4 // Function: Bit7=In Bit6=In Bit5=In Bit4=In Bit3=In Bit2=In Bit1=Out Bit0=In
                 ; 0000 02F5 DDRD=(0<<DDD7) | (0<<DDD6) | (0<<DDD5) | (0<<DDD4) | (0<<DDD3) | (0<<DDD2) | (1<<DDD1) | (0<<DDD0);
00062a e0e2      	LDI  R30,LOW(2)
00062b bbe1      	OUT  0x11,R30
                 ; 0000 02F6 // State: Bit7=T Bit6=T Bit5=T Bit4=T Bit3=P Bit2=P Bit1=0 Bit0=T
                 ; 0000 02F7 PORTD=(0<<PORTD7) | (0<<PORTD6) | (0<<PORTD5) | (0<<PORTD4) | (1<<PORTD3) | (1<<PORTD2) | (0<<PORTD1) | (0<<PORTD0);
00062c e0ec      	LDI  R30,LOW(12)
00062d bbe2      	OUT  0x12,R30
                 ; 0000 02F8 
                 ; 0000 02F9 // Timer/Counter 0 initialization
                 ; 0000 02FA // Clock source: System Clock
                 ; 0000 02FB // Clock value: 0.977 kHz
                 ; 0000 02FC //0.26214s
                 ; 0000 02FD TCCR0=(0<<CS02) | (0<<CS01) | (0<<CS00);
00062e e0e0      	LDI  R30,LOW(0)
00062f bfe3      	OUT  0x33,R30
                 ; 0000 02FE TCNT0=0x00;
000630 bfe2      	OUT  0x32,R30
                 ; 0000 02FF 
                 ; 0000 0300 // Timer(s)/Counter(s) Interrupt(s) initialization
                 ; 0000 0301 TIMSK=(0<<OCIE2) | (0<<TOIE2) | (0<<TICIE1) | (0<<OCIE1A) | (0<<OCIE1B) | (0<<TOIE1) | (0<<TOIE0);
000631 bfe9      	OUT  0x39,R30
                 ; 0000 0302 
                 ; 0000 0303 // External Interrupt(s) initialization
                 ; 0000 0304 // INT0: On
                 ; 0000 0305 // INT0 Mode: Falling Edge
                 ; 0000 0306 // INT1: On
                 ; 0000 0307 // INT1 Mode: Falling Edge
                 ; 0000 0308 GICR|=(1<<INT1) | (1<<INT0);
000632 b7eb      	IN   R30,0x3B
000633 6ce0      	ORI  R30,LOW(0xC0)
000634 bfeb      	OUT  0x3B,R30
                 ; 0000 0309 MCUCR=(1<<ISC11) | (0<<ISC10) | (1<<ISC01) | (0<<ISC00);
000635 e0ea      	LDI  R30,LOW(10)
000636 bfe5      	OUT  0x35,R30
                 ; 0000 030A GIFR=(1<<INTF1) | (1<<INTF0);
000637 ece0      	LDI  R30,LOW(192)
000638 bfea      	OUT  0x3A,R30
                 ; 0000 030B 
                 ; 0000 030C // USART initialization
                 ; 0000 030D // Communication Parameters: 8 Data, 1 Stop, No Parity
                 ; 0000 030E // USART Receiver: On
                 ; 0000 030F // USART Transmitter: On
                 ; 0000 0310 // USART Mode: Asynchronous
                 ; 0000 0311 // USART Baud Rate: 9600 (Double Speed Mode)
                 ; 0000 0312 UCSRA=(0<<RXC) | (0<<TXC) | (0<<UDRE) | (0<<FE) | (0<<DOR) | (0<<UPE) | (1<<U2X) | (1<<MPCM);
000639 e0e3      	LDI  R30,LOW(3)
00063a b9eb      	OUT  0xB,R30
                 ; 0000 0313 UCSRB=(1<<RXCIE) | (1<<TXCIE) | (0<<UDRIE) | (1<<RXEN) | (1<<TXEN) | (0<<UCSZ2) | (0<<RXB8) | (0<<TXB8);
00063b ede8      	LDI  R30,LOW(216)
00063c b9ea      	OUT  0xA,R30
                 ; 0000 0314 UCSRC=(1<<URSEL) | (0<<UMSEL) | (0<<UPM1) | (0<<UPM0) | (0<<USBS) | (1<<UCSZ1) | (1<<UCSZ0) | (0<<UCPOL);
00063d e8e6      	LDI  R30,LOW(134)
00063e bde0      	OUT  0x20,R30
                 ; 0000 0315 UBRRH=0x00;
00063f e0e0      	LDI  R30,LOW(0)
000640 bde0      	OUT  0x20,R30
                 ; 0000 0316 UBRRL=0x0C;
000641 e0ec      	LDI  R30,LOW(12)
000642 b9e9      	OUT  0x9,R30
                 ; 0000 0317 
                 ; 0000 0318 
                 ; 0000 0319 // Global enable interrupts
                 ; 0000 031A #asm("sei")
000643 9478      	sei
                 ; 0000 031B while(strpos(rx_buffer,'O')<0||strpos(rx_buffer,'K')<0)
                 _0x103:
000644 d1f6      	RCALL SUBOPT_0xE
000645 e4af      	LDI  R26,LOW(79)
000646 d2a7      	RCALL SUBOPT_0x3C
000647 f022      	BRMI _0x106
000648 d1f2      	RCALL SUBOPT_0xE
000649 e4ab      	LDI  R26,LOW(75)
00064a d2a3      	RCALL SUBOPT_0x3C
00064b f49a      	BRPL _0x105
                 _0x106:
                 ; 0000 031C {
                 ; 0000 031D     printf("AT\r\n");
                +
00064c e8e1     +LDI R30 , LOW ( 2 * _0x0 + ( 317 ) )
00064d e0f1     +LDI R31 , HIGH ( 2 * _0x0 + ( 317 ) )
                 	__POINTW1FN _0x0,317
00064e d24a      	RCALL SUBOPT_0x24
                 ; 0000 031E     printf(DISABLE_ECHO);
                +
00064f e8e6     +LDI R30 , LOW ( 2 * _0x0 + ( 322 ) )
000650 e0f1     +LDI R31 , HIGH ( 2 * _0x0 + ( 322 ) )
                 	__POINTW1FN _0x0,322
000651 d247      	RCALL SUBOPT_0x24
                 ; 0000 031F     delay_ms(1000);
000652 eea8      	LDI  R26,LOW(1000)
000653 e0b3      	LDI  R27,HIGH(1000)
000654 d2d9      	RCALL _delay_ms
                 ; 0000 0320     if(strpos(rx_buffer,'O')<0||strpos(rx_buffer,'K')<0) clearBuffer();
000655 d1e5      	RCALL SUBOPT_0xE
000656 e4af      	LDI  R26,LOW(79)
000657 d296      	RCALL SUBOPT_0x3C
000658 f022      	BRMI _0x109
000659 d1e1      	RCALL SUBOPT_0xE
00065a e4ab      	LDI  R26,LOW(75)
00065b d292      	RCALL SUBOPT_0x3C
00065c f40a      	BRPL _0x108
                 _0x109:
00065d dbbd      	RCALL _clearBuffer
                 ; 0000 0321 }
                 _0x108:
00065e cfe5      	RJMP _0x103
                 _0x105:
                 ; 0000 0322 printf(FORMAT_SMS_TEXT);
                +
00065f e8ed     +LDI R30 , LOW ( 2 * _0x0 + ( 329 ) )
000660 e0f1     +LDI R31 , HIGH ( 2 * _0x0 + ( 329 ) )
                 	__POINTW1FN _0x0,329
000661 d237      	RCALL SUBOPT_0x24
                 ; 0000 0323 delay_ms(200);
000662 d28e      	RCALL SUBOPT_0x3D
                 ; 0000 0324 printf(DISABLE_ECHO);
                +
000663 e8e6     +LDI R30 , LOW ( 2 * _0x0 + ( 322 ) )
000664 e0f1     +LDI R31 , HIGH ( 2 * _0x0 + ( 322 ) )
                 	__POINTW1FN _0x0,322
000665 d233      	RCALL SUBOPT_0x24
                 ; 0000 0325 delay_ms(200);
000666 d28a      	RCALL SUBOPT_0x3D
                 ; 0000 0326 printf(READ_WHEN_NEWSMS);
                +
000667 e9e9     +LDI R30 , LOW ( 2 * _0x0 + ( 341 ) )
000668 e0f1     +LDI R31 , HIGH ( 2 * _0x0 + ( 341 ) )
                 	__POINTW1FN _0x0,341
000669 d22f      	RCALL SUBOPT_0x24
                 ; 0000 0327 delay_ms(200);
00066a d286      	RCALL SUBOPT_0x3D
                 ; 0000 0328 printf(ENABLE_USSD);
                +
00066b eaed     +LDI R30 , LOW ( 2 * _0x0 + ( 361 ) )
00066c e0f1     +LDI R31 , HIGH ( 2 * _0x0 + ( 361 ) )
                 	__POINTW1FN _0x0,361
00066d d22b      	RCALL SUBOPT_0x24
                 ; 0000 0329 delay_ms(200);
00066e d282      	RCALL SUBOPT_0x3D
                 ; 0000 032A printf(DELETE_ALL_MSG);
                +
00066f ebe9     +LDI R30 , LOW ( 2 * _0x0 + ( 373 ) )
000670 e0f1     +LDI R31 , HIGH ( 2 * _0x0 + ( 373 ) )
                 	__POINTW1FN _0x0,373
000671 d227      	RCALL SUBOPT_0x24
                 ; 0000 032B delay_ms(200);
000672 d27e      	RCALL SUBOPT_0x3D
                 ; 0000 032C if(begin==255)
000673 e2ae      	LDI  R26,LOW(_begin)
000674 e0b0      	LDI  R27,HIGH(_begin)
000675 d23a      	RCALL SUBOPT_0x2B
000676 f479      	BRNE _0x10B
                 ; 0000 032D {
                 ; 0000 032E 
                 ; 0000 032F   password[0]='0';
000677 e3a0      	LDI  R26,LOW(_password)
000678 e0b0      	LDI  R27,HIGH(_password)
000679 d25e      	RCALL SUBOPT_0x35
                 ; 0000 0330   password[1]='0';
                +
00067a e3a1     +LDI R26 , LOW ( _password + ( 1 ) )
00067b e0b0     +LDI R27 , HIGH ( _password + ( 1 ) )
                 	__POINTW2MN _password,1
00067c d25b      	RCALL SUBOPT_0x35
                 ; 0000 0331   password[2]='0';
                +
00067d e3a2     +LDI R26 , LOW ( _password + ( 2 ) )
00067e e0b0     +LDI R27 , HIGH ( _password + ( 2 ) )
                 	__POINTW2MN _password,2
00067f d258      	RCALL SUBOPT_0x35
                 ; 0000 0332   password[3]='0';
                +
000680 e3a3     +LDI R26 , LOW ( _password + ( 3 ) )
000681 e0b0     +LDI R27 , HIGH ( _password + ( 3 ) )
                 	__POINTW2MN _password,3
000682 d255      	RCALL SUBOPT_0x35
                 ; 0000 0333   begin=0;
000683 e2ae      	LDI  R26,LOW(_begin)
000684 e0b0      	LDI  R27,HIGH(_begin)
000685 d25b      	RCALL SUBOPT_0x38
                 ; 0000 0334 }
                 ; 0000 0335 if(save1==1) LOAD1=1;
                 _0x10B:
000686 d23a      	RCALL SUBOPT_0x30
000687 f411      	BRNE _0x10C
000688 9aa8      	SBI  0x15,0
                 ; 0000 0336 else LOAD1=0;
000689 c001      	RJMP _0x10F
                 _0x10C:
00068a 98a8      	CBI  0x15,0
                 ; 0000 0337 if(save2==1) LOAD2=1;
                 _0x10F:
00068b d239      	RCALL SUBOPT_0x31
00068c f411      	BRNE _0x112
00068d 9aa9      	SBI  0x15,1
                 ; 0000 0338 else LOAD2=0;
00068e c001      	RJMP _0x115
                 _0x112:
00068f 98a9      	CBI  0x15,1
                 ; 0000 0339 clearBuffer();
                 _0x115:
000690 db8a      	RCALL _clearBuffer
                 ; 0000 033A while (1)
                 _0x118:
                 ; 0000 033B       {     if(flag) strHandle();
000691 2044      	TST  R4
000692 f009      	BREQ _0x11B
000693 dbc6      	RCALL _strHandle
                 ; 0000 033C       }
                 _0x11B:
000694 cffc      	RJMP _0x118
                 ; 0000 033D }
                 _0x11C:
000695 cfff      	RJMP _0x11C
                 ; .FEND
                 	#ifndef __SLEEP_DEFINED__
                 	#endif
                 
                 	.CSEG
                 _puts:
                 ; .FSTART _puts
000696 d25c      	RCALL SUBOPT_0x3E
000697 931a      	ST   -Y,R17
                 _0x2000003:
000698 d25d      	RCALL SUBOPT_0x3F
000699 91ed      	LD   R30,X+
00069a 83a9      	STD  Y+1,R26
00069b 83ba      	STD  Y+1+1,R27
00069c 2f1e      	MOV  R17,R30
00069d 30e0      	CPI  R30,0
00069e f019      	BREQ _0x2000005
00069f 2fa1      	MOV  R26,R17
0006a0 db5f      	RCALL _putchar
0006a1 cff6      	RJMP _0x2000003
                 _0x2000005:
0006a2 e0aa      	LDI  R26,LOW(10)
0006a3 db5c      	RCALL _putchar
0006a4 c126      	RJMP _0x2080002
                 ; .FEND
                 _put_usart_G100:
                 ; .FSTART _put_usart_G100
0006a5 d24d      	RCALL SUBOPT_0x3E
0006a6 81aa      	LDD  R26,Y+2
0006a7 db58      	RCALL _putchar
0006a8 81a8      	LD   R26,Y
0006a9 81b9      	LDD  R27,Y+1
0006aa 91ed      	LD   R30,X+
0006ab 91fd      	LD   R31,X+
0006ac 9631      	ADIW R30,1
0006ad 93fe      	ST   -X,R31
0006ae 93ee      	ST   -X,R30
0006af c11c      	RJMP _0x2080001
                 ; .FEND
                 __print_G100:
                 ; .FSTART __print_G100
0006b0 d242      	RCALL SUBOPT_0x3E
0006b1 9724      	SBIW R28,4
0006b2 d2bd      	RCALL __SAVELOCR6
0006b3 e010      	LDI  R17,0
0006b4 85aa      	LDD  R26,Y+10
0006b5 85bb      	LDD  R27,Y+10+1
0006b6 e0e0      	LDI  R30,LOW(0)
0006b7 e0f0      	LDI  R31,HIGH(0)
0006b8 93ed      	ST   X+,R30
0006b9 93fc      	ST   X,R31
                 _0x2000016:
0006ba 89e8      	LDD  R30,Y+16
0006bb 89f9      	LDD  R31,Y+16+1
0006bc 9631      	ADIW R30,1
0006bd 8be8      	STD  Y+16,R30
0006be 8bf9      	STD  Y+16+1,R31
0006bf d239      	RCALL SUBOPT_0x40
0006c0 f409      	BRNE PC+2
0006c1 c0a1      	RJMP _0x2000018
0006c2 2fe1      	MOV  R30,R17
0006c3 30e0      	CPI  R30,0
0006c4 f431      	BRNE _0x200001C
0006c5 3235      	CPI  R19,37
0006c6 f411      	BRNE _0x200001D
0006c7 e011      	LDI  R17,LOW(1)
0006c8 c001      	RJMP _0x200001E
                 _0x200001D:
0006c9 d234      	RCALL SUBOPT_0x41
                 _0x200001E:
0006ca c097      	RJMP _0x200001B
                 _0x200001C:
0006cb 30e1      	CPI  R30,LOW(0x1)
0006cc f481      	BRNE _0x200001F
0006cd 3235      	CPI  R19,37
0006ce f411      	BRNE _0x2000020
0006cf d22e      	RCALL SUBOPT_0x41
0006d0 c090      	RJMP _0x20000AD
                 _0x2000020:
0006d1 e012      	LDI  R17,LOW(2)
0006d2 e020      	LDI  R18,LOW(0)
0006d3 e000      	LDI  R16,LOW(0)
0006d4 323b      	CPI  R19,43
0006d5 f411      	BRNE _0x2000021
0006d6 e22b      	LDI  R18,LOW(43)
0006d7 c08a      	RJMP _0x200001B
                 _0x2000021:
0006d8 3230      	CPI  R19,32
0006d9 f411      	BRNE _0x2000022
0006da e220      	LDI  R18,LOW(32)
0006db c086      	RJMP _0x200001B
                 _0x2000022:
0006dc c002      	RJMP _0x2000023
                 _0x200001F:
0006dd 30e2      	CPI  R30,LOW(0x2)
0006de f431      	BRNE _0x2000024
                 _0x2000023:
0006df 3330      	CPI  R19,48
0006e0 f419      	BRNE _0x2000025
0006e1 6100      	ORI  R16,LOW(16)
0006e2 e015      	LDI  R17,LOW(5)
0006e3 c07e      	RJMP _0x200001B
                 _0x2000025:
0006e4 c003      	RJMP _0x2000026
                 _0x2000024:
0006e5 30e5      	CPI  R30,LOW(0x5)
0006e6 f009      	BREQ PC+2
0006e7 c07a      	RJMP _0x200001B
                 _0x2000026:
0006e8 2fe3      	MOV  R30,R19
0006e9 36e3      	CPI  R30,LOW(0x63)
0006ea f439      	BRNE _0x200002B
0006eb d219      	RCALL SUBOPT_0x42
0006ec d21b      	RCALL SUBOPT_0x43
0006ed d217      	RCALL SUBOPT_0x42
0006ee 81a4      	LDD  R26,Z+4
0006ef 93aa      	ST   -Y,R26
0006f0 d21b      	RCALL SUBOPT_0x44
0006f1 c06f      	RJMP _0x200002C
                 _0x200002B:
0006f2 37e3      	CPI  R30,LOW(0x73)
0006f3 f469      	BRNE _0x200002E
0006f4 d21d      	RCALL SUBOPT_0x45
0006f5 d21e      	RCALL SUBOPT_0x46
                 _0x200002F:
0006f6 81ae      	LDD  R26,Y+6
0006f7 81bf      	LDD  R27,Y+6+1
0006f8 91ed      	LD   R30,X+
0006f9 83ae      	STD  Y+6,R26
0006fa 83bf      	STD  Y+6+1,R27
0006fb 2f3e      	MOV  R19,R30
0006fc 30e0      	CPI  R30,0
0006fd f011      	BREQ _0x2000031
0006fe d1ff      	RCALL SUBOPT_0x41
0006ff cff6      	RJMP _0x200002F
                 _0x2000031:
000700 c060      	RJMP _0x200002C
                 _0x200002E:
000701 37e0      	CPI  R30,LOW(0x70)
000702 f461      	BRNE _0x2000033
000703 d20e      	RCALL SUBOPT_0x45
000704 d20f      	RCALL SUBOPT_0x46
                 _0x2000034:
000705 81ee      	LDD  R30,Y+6
000706 81ff      	LDD  R31,Y+6+1
000707 9631      	ADIW R30,1
000708 83ee      	STD  Y+6,R30
000709 83ff      	STD  Y+6+1,R31
00070a d1ee      	RCALL SUBOPT_0x40
00070b f011      	BREQ _0x2000036
00070c d1f1      	RCALL SUBOPT_0x41
00070d cff7      	RJMP _0x2000034
                 _0x2000036:
00070e c052      	RJMP _0x200002C
                 _0x2000033:
00070f 36e4      	CPI  R30,LOW(0x64)
000710 f011      	BREQ _0x2000039
000711 36e9      	CPI  R30,LOW(0x69)
000712 f411      	BRNE _0x200003A
                 _0x2000039:
000713 6001      	ORI  R16,LOW(1)
000714 c002      	RJMP _0x200003B
                 _0x200003A:
000715 37e5      	CPI  R30,LOW(0x75)
000716 f419      	BRNE _0x200003C
                 _0x200003B:
000717 e2e6      	LDI  R30,LOW(_tbl10_G100*2)
000718 e0f0      	LDI  R31,HIGH(_tbl10_G100*2)
000719 c009      	RJMP _0x20000AE
                 _0x200003C:
00071a 35e8      	CPI  R30,LOW(0x58)
00071b f411      	BRNE _0x200003F
00071c 6002      	ORI  R16,LOW(2)
00071d c003      	RJMP _0x2000040
                 _0x200003F:
00071e 37e8      	CPI  R30,LOW(0x78)
00071f f009      	BREQ PC+2
000720 c040      	RJMP _0x2000052
                 _0x2000040:
000721 e3e0      	LDI  R30,LOW(_tbl16_G100*2)
000722 e0f0      	LDI  R31,HIGH(_tbl16_G100*2)
                 _0x20000AE:
000723 83ee      	STD  Y+6,R30
000724 83ff      	STD  Y+6+1,R31
000725 ff00      	SBRS R16,0
000726 c00d      	RJMP _0x2000042
000727 d1ea      	RCALL SUBOPT_0x45
000728 d1f2      	RCALL SUBOPT_0x47
000729 2355      	TST  R21
00072a f422      	BRPL _0x2000043
00072b 01fa      	MOVW R30,R20
00072c d20f      	RCALL __ANEGW1
00072d 01af      	MOVW R20,R30
00072e e22d      	LDI  R18,LOW(45)
                 _0x2000043:
00072f 3020      	CPI  R18,0
000730 f011      	BREQ _0x2000044
000731 932a      	ST   -Y,R18
000732 d1d9      	RCALL SUBOPT_0x44
                 _0x2000044:
000733 c002      	RJMP _0x2000045
                 _0x2000042:
000734 d1dd      	RCALL SUBOPT_0x45
000735 d1e5      	RCALL SUBOPT_0x47
                 _0x2000045:
                 _0x2000047:
000736 e330      	LDI  R19,LOW(48)
000737 81ee      	LDD  R30,Y+6
000738 81ff      	LDD  R31,Y+6+1
000739 d20a      	RCALL __GETW1PF
00073a 87e8      	STD  Y+8,R30
00073b 87f9      	STD  Y+8+1,R31
00073c 81ee      	LDD  R30,Y+6
00073d 81ff      	LDD  R31,Y+6+1
00073e 9632      	ADIW R30,2
00073f 83ee      	STD  Y+6,R30
000740 83ff      	STD  Y+6+1,R31
                 _0x2000049:
000741 85e8      	LDD  R30,Y+8
000742 85f9      	LDD  R31,Y+8+1
000743 174e      	CP   R20,R30
000744 075f      	CPC  R21,R31
000745 f030      	BRLO _0x200004B
000746 5f3f      	SUBI R19,-LOW(1)
000747 85a8      	LDD  R26,Y+8
000748 85b9      	LDD  R27,Y+8+1
                +
000749 1b4a     +SUB R20 , R26
00074a 0b5b     +SBC R21 , R27
                 	__SUBWRR 20,21,26,27
00074b cff5      	RJMP _0x2000049
                 _0x200004B:
00074c fd04      	SBRC R16,4
00074d c006      	RJMP _0x200004D
00074e 3331      	CPI  R19,49
00074f f420      	BRSH _0x200004D
000750 85a8      	LDD  R26,Y+8
000751 85b9      	LDD  R27,Y+8+1
000752 9711      	SBIW R26,1
000753 f449      	BRNE _0x200004C
                 _0x200004D:
000754 6100      	ORI  R16,LOW(16)
000755 333a      	CPI  R19,58
000756 f028      	BRLO _0x200004F
000757 ff01      	SBRS R16,1
000758 c002      	RJMP _0x2000050
000759 5f39      	SUBI R19,-LOW(7)
00075a c001      	RJMP _0x2000051
                 _0x2000050:
00075b 5d39      	SUBI R19,-LOW(39)
                 _0x2000051:
                 _0x200004F:
00075c d1a1      	RCALL SUBOPT_0x41
                 _0x200004C:
00075d 85a8      	LDD  R26,Y+8
00075e 85b9      	LDD  R27,Y+8+1
00075f 9712      	SBIW R26,2
000760 f6a8      	BRSH _0x2000047
                 _0x2000052:
                 _0x200002C:
                 _0x20000AD:
000761 e010      	LDI  R17,LOW(0)
                 _0x200001B:
000762 cf57      	RJMP _0x2000016
                 _0x2000018:
000763 85aa      	LDD  R26,Y+10
000764 85bb      	LDD  R27,Y+10+1
000765 d1da      	RCALL __GETW1P
000766 d210      	RCALL __LOADLOCR6
000767 9662      	ADIW R28,18
000768 9508      	RET
                 ; .FEND
                 _printf:
                 ; .FSTART _printf
000769 92ff      	PUSH R15
00076a 2ef8      	MOV  R15,R24
00076b 9726      	SBIW R28,6
00076c d207      	RCALL __SAVELOCR2
00076d 01de      	MOVW R26,R28
00076e 9614      	ADIW R26,4
00076f d1c8      	RCALL __ADDW2R15
000770 018d      	MOVW R16,R26
000771 e0e0      	LDI  R30,LOW(0)
000772 83ec      	STD  Y+4,R30
000773 83ed      	STD  Y+4+1,R30
000774 83ee      	STD  Y+6,R30
000775 83ef      	STD  Y+6+1,R30
000776 01de      	MOVW R26,R28
000777 9618      	ADIW R26,8
000778 d1bf      	RCALL __ADDW2R15
000779 d1c6      	RCALL __GETW1P
00077a d111      	RCALL SUBOPT_0x20
00077b 931a      	ST   -Y,R17
00077c 930a      	ST   -Y,R16
00077d eae5      	LDI  R30,LOW(_put_usart_G100)
00077e e0f6      	LDI  R31,HIGH(_put_usart_G100)
00077f d10c      	RCALL SUBOPT_0x20
000780 01de      	MOVW R26,R28
000781 9618      	ADIW R26,8
000782 df2d      	RCALL __print_G100
000783 d1f7      	RCALL __LOADLOCR2
000784 9628      	ADIW R28,8
000785 90ff      	POP  R15
000786 9508      	RET
                 ; .FEND
                 	#ifndef __SLEEP_DEFINED__
                 	#endif
                 
                 	.CSEG
                 _sendSMS:
                 ; .FSTART _sendSMS
000787 d16b      	RCALL SUBOPT_0x3E
000788 931a      	ST   -Y,R17
                +
000789 ecec     +LDI R30 , LOW ( 2 * _0x2020000 + ( 0 ) )
00078a e0f1     +LDI R31 , HIGH ( 2 * _0x2020000 + ( 0 ) )
                 	__POINTW1FN _0x2020000,0
00078b d10d      	RCALL SUBOPT_0x24
00078c e2a2      	LDI  R26,LOW(34)
00078d da72      	RCALL _putchar
00078e e010      	LDI  R17,LOW(0)
                 _0x2020004:
00078f 301b      	CPI  R17,11
000790 f458      	BRSH _0x2020005
000791 d18f      	RCALL SUBOPT_0x48
000792 32af      	CPI  R26,LOW(0x2F)
000793 f018      	BRLO _0x2020007
000794 d18c      	RCALL SUBOPT_0x48
000795 33aa      	CPI  R26,LOW(0x3A)
000796 f008      	BRLO _0x2020008
                 _0x2020007:
000797 c002      	RJMP _0x2020006
                 _0x2020008:
000798 d188      	RCALL SUBOPT_0x48
000799 da66      	RCALL _putchar
                 _0x2020006:
00079a 5f1f      	SUBI R17,-1
00079b cff3      	RJMP _0x2020004
                 _0x2020005:
00079c e2a2      	LDI  R26,LOW(34)
00079d da62      	RCALL _putchar
                +
00079e ede5     +LDI R30 , LOW ( 2 * _0x2020000 + ( 9 ) )
00079f e0f1     +LDI R31 , HIGH ( 2 * _0x2020000 + ( 9 ) )
                 	__POINTW1FN _0x2020000,9
0007a0 d0f8      	RCALL SUBOPT_0x24
0007a1 d0a6      	RCALL SUBOPT_0x11
0007a2 d153      	RCALL SUBOPT_0x3F
0007a3 def2      	RCALL _puts
0007a4 e0aa      	LDI  R26,LOW(10)
0007a5 d06e      	RCALL SUBOPT_0x3
0007a6 e1aa      	LDI  R26,LOW(26)
0007a7 da58      	RCALL _putchar
0007a8 8118      	LDD  R17,Y+0
0007a9 9625      	ADIW R28,5
0007aa 9508      	RET
                 ; .FEND
                 _KTTK:
                 ; .FSTART _KTTK
                +
0007ab ede7     +LDI R30 , LOW ( 2 * _0x2020000 + ( 11 ) )
0007ac e0f1     +LDI R31 , HIGH ( 2 * _0x2020000 + ( 11 ) )
                 	__POINTW1FN _0x2020000,11
0007ad d0eb      	RCALL SUBOPT_0x24
                +
0007ae eee3     +LDI R30 , LOW ( 2 * _0x2020000 + ( 23 ) )
0007af e0f1     +LDI R31 , HIGH ( 2 * _0x2020000 + ( 23 ) )
                 	__POINTW1FN _0x2020000,23
0007b0 d0e8      	RCALL SUBOPT_0x24
0007b1 9508      	RET
                 ; .FEND
                 _naptien:
                 ; .FSTART _naptien
0007b2 d140      	RCALL SUBOPT_0x3E
0007b3 931a      	ST   -Y,R17
                +
0007b4 ede7     +LDI R30 , LOW ( 2 * _0x2020000 + ( 11 ) )
0007b5 e0f1     +LDI R31 , HIGH ( 2 * _0x2020000 + ( 11 ) )
                 	__POINTW1FN _0x2020000,11
0007b6 d0e2      	RCALL SUBOPT_0x24
                +
0007b7 eeef     +LDI R30 , LOW ( 2 * _0x2020000 + ( 35 ) )
0007b8 e0f1     +LDI R31 , HIGH ( 2 * _0x2020000 + ( 35 ) )
                 	__POINTW1FN _0x2020000,35
0007b9 d0df      	RCALL SUBOPT_0x24
0007ba e010      	LDI  R17,LOW(0)
                 _0x202000A:
0007bb 301d      	CPI  R17,13
0007bc f458      	BRSH _0x202000B
0007bd d16a      	RCALL SUBOPT_0x49
0007be 32af      	CPI  R26,LOW(0x2F)
0007bf f018      	BRLO _0x202000D
0007c0 d167      	RCALL SUBOPT_0x49
0007c1 33aa      	CPI  R26,LOW(0x3A)
0007c2 f008      	BRLO _0x202000E
                 _0x202000D:
0007c3 c002      	RJMP _0x202000C
                 _0x202000E:
0007c4 d163      	RCALL SUBOPT_0x49
0007c5 da3a      	RCALL _putchar
                 _0x202000C:
0007c6 5f1f      	SUBI R17,-1
0007c7 cff3      	RJMP _0x202000A
                 _0x202000B:
                +
0007c8 eeea     +LDI R30 , LOW ( 2 * _0x2020000 + ( 30 ) )
0007c9 e0f1     +LDI R31 , HIGH ( 2 * _0x2020000 + ( 30 ) )
                 	__POINTW1FN _0x2020000,30
0007ca d0ce      	RCALL SUBOPT_0x24
                 _0x2080002:
0007cb 8118      	LDD  R17,Y+0
                 _0x2080001:
0007cc 9623      	ADIW R28,3
0007cd 9508      	RET
                 ; .FEND
                 
                 	.CSEG
                 _strcmp:
                 ; .FSTART _strcmp
0007ce d124      	RCALL SUBOPT_0x3E
0007cf 91e9          ld   r30,y+
0007d0 91f9          ld   r31,y+
0007d1 91a9          ld   r26,y+
0007d2 91b9          ld   r27,y+
                 strcmp0:
0007d3 916d          ld   r22,x+
0007d4 9171          ld   r23,z+
0007d5 1767          cp   r22,r23
0007d6 f421          brne strcmp1
0007d7 2366          tst  r22
0007d8 f7d1          brne strcmp0
                 strcmp3:
0007d9 27ee          clr  r30
0007da 9508          ret
                 strcmp1:
0007db 1b67          sub  r22,r23
0007dc f3e1          breq strcmp3
0007dd e0e1          ldi  r30,1
0007de f408          brcc strcmp2
0007df 50e2          subi r30,2
                 strcmp2:
0007e0 9508          ret
                 ; .FEND
                 _strpos:
                 ; .FSTART _strpos
0007e1 93aa      	ST   -Y,R26
0007e2 9169          ld   r22,y+
0007e3 91a9          ld   r26,y+
0007e4 91b9          ld   r27,y+
0007e5 27ee          clr  r30
0007e6 27ff          clr  r31
                 strpos0:
0007e7 917d          ld   r23,x+
0007e8 1767          cp   r22,r23
0007e9 f029          breq strpos1
0007ea 9631          adiw r30,1
0007eb 2377          tst  r23
0007ec f7d1          brne strpos0
0007ed efef          ldi  r30,0xff
0007ee efff          ldi  r31,0xff
                 strpos1:
0007ef 9508          ret
                 ; .FEND
                 _strrpos:
                 ; .FSTART _strrpos
0007f0 93aa      	ST   -Y,R26
0007f1 9169          ld   r22,y+
0007f2 91a9          ld   r26,y+
0007f3 91b9          ld   r27,y+
0007f4 efef          ldi  r30,0xff
0007f5 efff          ldi  r31,0xff
0007f6 2788          clr  r24
0007f7 2799          clr  r25
                 strrpos0:
0007f8 917d          ld   r23,x+
0007f9 1767          cp   r22,r23
0007fa f409          brne strrpos1
0007fb 01fc          movw r30,r24
                 strrpos1:
0007fc 9601          adiw r24,1
0007fd 2377          tst  r23
0007fe f7c9          brne strrpos0
0007ff 9508          ret
                 ; .FEND
                 
                 	.CSEG
                 
                 	.DSEG
                 _content:
0002ba           	.BYTE 0xF
                 _syntax:
0002c9           	.BYTE 0xF
                 _type:
0002d8           	.BYTE 0x4
                 _phoneNumber:
0002dc           	.BYTE 0xB
                 _msgStr:
0002e7           	.BYTE 0x64
                 
                 	.ESEG
                 _sdt1:
000000           	.BYTE 0xB
                 _sdt2:
00000b           	.BYTE 0xB
                 _sdt3:
000016           	.BYTE 0xB
                 _lastNumber:
000021           	.BYTE 0xB
                 _save1:
00002c           	.BYTE 0x1
                 _save2:
00002d           	.BYTE 0x1
                 _begin:
00002e           	.BYTE 0x1
                 _tb:
00002f           	.BYTE 0x1
                 _password:
000030           	.BYTE 0x4
                 
                 	.DSEG
                 _rx_buffer:
00034b           	.BYTE 0x6E
                 _tx_buffer:
0003b9           	.BYTE 0x1
                 
                 	.CSEG
                 ;OPTIMIZER ADDED SUBROUTINE, CALLED 2 TIMES, CODE SIZE REDUCTION:10 WORDS
                 SUBOPT_0x0:
000800 920a      	ST   -Y,R0
000801 921a      	ST   -Y,R1
000802 92fa      	ST   -Y,R15
000803 936a      	ST   -Y,R22
000804 937a      	ST   -Y,R23
000805 938a      	ST   -Y,R24
000806 939a      	ST   -Y,R25
000807 93aa      	ST   -Y,R26
000808 93ba      	ST   -Y,R27
000809 93ea      	ST   -Y,R30
00080a 93fa      	ST   -Y,R31
00080b b7ef      	IN   R30,SREG
00080c 93ea      	ST   -Y,R30
00080d 9508      	RET
                 
                 ;OPTIMIZER ADDED SUBROUTINE, CALLED 11 TIMES, CODE SIZE REDUCTION:8 WORDS
                 SUBOPT_0x1:
00080e e2ac      	LDI  R26,LOW(_save1)
00080f e0b0      	LDI  R27,HIGH(_save1)
000810 9508      	RET
                 
                 ;OPTIMIZER ADDED SUBROUTINE, CALLED 12 TIMES, CODE SIZE REDUCTION:9 WORDS
                 SUBOPT_0x2:
000811 e2ad      	LDI  R26,LOW(_save2)
000812 e0b0      	LDI  R27,HIGH(_save2)
000813 9508      	RET
                 
                 ;OPTIMIZER ADDED SUBROUTINE, CALLED 15 TIMES, CODE SIZE REDUCTION:12 WORDS
                 SUBOPT_0x3:
000814 e0b0      	LDI  R27,0
000815 c118      	RJMP _delay_ms
                 
                 ;OPTIMIZER ADDED SUBROUTINE, CALLED 2 TIMES, CODE SIZE REDUCTION:1 WORDS
                 SUBOPT_0x4:
000816 93ea      	ST   -Y,R30
000817 93fa      	ST   -Y,R31
000818 b7ef      	IN   R30,SREG
000819 93ea      	ST   -Y,R30
00081a 9508      	RET
                 
                 ;OPTIMIZER ADDED SUBROUTINE, CALLED 7 TIMES, CODE SIZE REDUCTION:4 WORDS
                 SUBOPT_0x5:
00081b 5be5      	SUBI R30,LOW(-_rx_buffer)
00081c 4ffc      	SBCI R31,HIGH(-_rx_buffer)
00081d 9508      	RET
                 
                 ;OPTIMIZER ADDED SUBROUTINE, CALLED 26 TIMES, CODE SIZE REDUCTION:23 WORDS
                 SUBOPT_0x6:
00081e 2fe1      	MOV  R30,R17
00081f e0f0      	LDI  R31,0
000820 9508      	RET
                 
                 ;OPTIMIZER ADDED SUBROUTINE, CALLED 6 TIMES, CODE SIZE REDUCTION:3 WORDS
                 SUBOPT_0x7:
000821 51e9      	SUBI R30,LOW(-_msgStr)
000822 4ffd      	SBCI R31,HIGH(-_msgStr)
000823 9508      	RET
                 
                 ;OPTIMIZER ADDED SUBROUTINE, CALLED 7 TIMES, CODE SIZE REDUCTION:4 WORDS
                 SUBOPT_0x8:
000824 52e4      	SUBI R30,LOW(-_phoneNumber)
000825 4ffd      	SBCI R31,HIGH(-_phoneNumber)
000826 9508      	RET
                 
                 ;OPTIMIZER ADDED SUBROUTINE, CALLED 4 TIMES, CODE SIZE REDUCTION:4 WORDS
                 SUBOPT_0x9:
000827 010f      	MOVW R0,R30
000828 2fa1      	MOV  R26,R17
000829 e0b0      	LDI  R27,0
00082a 9508      	RET
                 
                 ;OPTIMIZER ADDED SUBROUTINE, CALLED 5 TIMES, CODE SIZE REDUCTION:2 WORDS
                 SUBOPT_0xA:
00082b 01d0      	MOVW R26,R0
00082c 93ec      	ST   X,R30
00082d 9508      	RET
                 
                 ;OPTIMIZER ADDED SUBROUTINE, CALLED 16 TIMES, CODE SIZE REDUCTION:43 WORDS
                 SUBOPT_0xB:
00082e edec      	LDI  R30,LOW(_phoneNumber)
00082f e0f2      	LDI  R31,HIGH(_phoneNumber)
000830 93fa      	ST   -Y,R31
000831 93ea      	ST   -Y,R30
000832 9508      	RET
                 
                 ;OPTIMIZER ADDED SUBROUTINE, CALLED 7 TIMES, CODE SIZE REDUCTION:16 WORDS
                 SUBOPT_0xC:
000833 ede8      	LDI  R30,LOW(_type)
000834 e0f2      	LDI  R31,HIGH(_type)
000835 93fa      	ST   -Y,R31
000836 93ea      	ST   -Y,R30
000837 9508      	RET
                 
                 ;OPTIMIZER ADDED SUBROUTINE, CALLED 31 TIMES, CODE SIZE REDUCTION:28 WORDS
                 SUBOPT_0xD:
000838 df95      	RCALL _strcmp
000839 30e0      	CPI  R30,0
00083a 9508      	RET
                 
                 ;OPTIMIZER ADDED SUBROUTINE, CALLED 14 TIMES, CODE SIZE REDUCTION:37 WORDS
                 SUBOPT_0xE:
00083b e4eb      	LDI  R30,LOW(_rx_buffer)
00083c e0f3      	LDI  R31,HIGH(_rx_buffer)
00083d 93fa      	ST   -Y,R31
00083e 93ea      	ST   -Y,R30
00083f 9508      	RET
                 
                 ;OPTIMIZER ADDED SUBROUTINE, CALLED 5 TIMES, CODE SIZE REDUCTION:2 WORDS
                 SUBOPT_0xF:
000840 9631      	ADIW R30,1
000841 01df      	MOVW R26,R30
000842 9508      	RET
                 
                 ;OPTIMIZER ADDED SUBROUTINE, CALLED 5 TIMES, CODE SIZE REDUCTION:10 WORDS
                 SUBOPT_0x10:
000843 0fea      	ADD  R30,R26
000844 1ffb      	ADC  R31,R27
000845 dfd5      	RCALL SUBOPT_0x5
000846 81e0      	LD   R30,Z
000847 9508      	RET
                 
                 ;OPTIMIZER ADDED SUBROUTINE, CALLED 6 TIMES, CODE SIZE REDUCTION:3 WORDS
                 SUBOPT_0x11:
000848 e3a2      	LDI  R26,LOW(50)
000849 cfca      	RJMP SUBOPT_0x3
                 
                 ;OPTIMIZER ADDED SUBROUTINE, CALLED 4 TIMES, CODE SIZE REDUCTION:1 WORDS
                 SUBOPT_0x12:
00084a e2a2      	LDI  R26,LOW(34)
00084b cf95      	RJMP _strpos
                 
                 ;OPTIMIZER ADDED SUBROUTINE, CALLED 7 TIMES, CODE SIZE REDUCTION:4 WORDS
                 SUBOPT_0x13:
00084c 2fe2      	MOV  R30,R18
00084d e0f0      	LDI  R31,0
00084e 9508      	RET
                 
                 ;OPTIMIZER ADDED SUBROUTINE, CALLED 8 TIMES, CODE SIZE REDUCTION:5 WORDS
                 SUBOPT_0x14:
00084f 2fe0      	MOV  R30,R16
000850 e0f0      	LDI  R31,0
000851 9508      	RET
                 
                 ;OPTIMIZER ADDED SUBROUTINE, CALLED 2 TIMES, CODE SIZE REDUCTION:4 WORDS
                 SUBOPT_0x15:
000852 e2a1      	LDI  R26,LOW(_lastNumber)
000853 e0b0      	LDI  R27,HIGH(_lastNumber)
000854 d0fa      	RCALL __EEPROMRDB
000855 2fae      	MOV  R26,R30
000856 91e0 02dc 	LDS  R30,_phoneNumber
000858 17ea      	CP   R30,R26
000859 9508      	RET
                 
                 ;OPTIMIZER ADDED SUBROUTINE, CALLED 2 TIMES, CODE SIZE REDUCTION:4 WORDS
                 SUBOPT_0x16:
                +
00085a e2a3     +LDI R26 , LOW ( _lastNumber + ( 2 ) )
00085b e0b0     +LDI R27 , HIGH ( _lastNumber + ( 2 ) )
                 	__POINTW2MN _lastNumber,2
00085c d0f2      	RCALL __EEPROMRDB
00085d 2fae      	MOV  R26,R30
                +
00085e 91e0 02de+LDS R30 , _phoneNumber + ( 2 )
                 	__GETB1MN _phoneNumber,2
000860 17ea      	CP   R30,R26
000861 9508      	RET
                 
                 ;OPTIMIZER ADDED SUBROUTINE, CALLED 2 TIMES, CODE SIZE REDUCTION:4 WORDS
                 SUBOPT_0x17:
                +
000862 e2a5     +LDI R26 , LOW ( _lastNumber + ( 4 ) )
000863 e0b0     +LDI R27 , HIGH ( _lastNumber + ( 4 ) )
                 	__POINTW2MN _lastNumber,4
000864 d0ea      	RCALL __EEPROMRDB
000865 2fae      	MOV  R26,R30
                +
000866 91e0 02e0+LDS R30 , _phoneNumber + ( 4 )
                 	__GETB1MN _phoneNumber,4
000868 17ea      	CP   R30,R26
000869 9508      	RET
                 
                 ;OPTIMIZER ADDED SUBROUTINE, CALLED 2 TIMES, CODE SIZE REDUCTION:4 WORDS
                 SUBOPT_0x18:
                +
00086a e2a7     +LDI R26 , LOW ( _lastNumber + ( 6 ) )
00086b e0b0     +LDI R27 , HIGH ( _lastNumber + ( 6 ) )
                 	__POINTW2MN _lastNumber,6
00086c d0e2      	RCALL __EEPROMRDB
00086d 2fae      	MOV  R26,R30
                +
00086e 91e0 02e2+LDS R30 , _phoneNumber + ( 6 )
                 	__GETB1MN _phoneNumber,6
000870 17ea      	CP   R30,R26
000871 9508      	RET
                 
                 ;OPTIMIZER ADDED SUBROUTINE, CALLED 7 TIMES, CODE SIZE REDUCTION:4 WORDS
                 SUBOPT_0x19:
000872 81a0      	LD   R26,Z
000873 33a0      	CPI  R26,LOW(0x30)
000874 9508      	RET
                 
                 ;OPTIMIZER ADDED SUBROUTINE, CALLED 7 TIMES, CODE SIZE REDUCTION:4 WORDS
                 SUBOPT_0x1A:
000875 81a0      	LD   R26,Z
000876 33aa      	CPI  R26,LOW(0x3A)
000877 9508      	RET
                 
                 ;OPTIMIZER ADDED SUBROUTINE, CALLED 2 TIMES, CODE SIZE REDUCTION:1 WORDS
                 SUBOPT_0x1B:
000878 2fa0      	MOV  R26,R16
000879 e0b0      	LDI  R27,0
00087a 5daf      	SUBI R26,LOW(-_lastNumber)
00087b 4fbf      	SBCI R27,HIGH(-_lastNumber)
00087c 9508      	RET
                 
                 ;OPTIMIZER ADDED SUBROUTINE, CALLED 4 TIMES, CODE SIZE REDUCTION:4 WORDS
                 SUBOPT_0x1C:
00087d d0ca      	RCALL __SWAPW12
00087e 1bea      	SUB  R30,R26
00087f 0bfb      	SBC  R31,R27
000880 9508      	RET
                 
                 ;OPTIMIZER ADDED SUBROUTINE, CALLED 2 TIMES, CODE SIZE REDUCTION:1 WORDS
                 SUBOPT_0x1D:
000881 2fa0      	MOV  R26,R16
000882 e0b0      	LDI  R27,0
000883 17ae      	CP   R26,R30
000884 07bf      	CPC  R27,R31
000885 9508      	RET
                 
                 ;OPTIMIZER ADDED SUBROUTINE, CALLED 6 TIMES, CODE SIZE REDUCTION:3 WORDS
                 SUBOPT_0x1E:
000886 2fa3      	MOV  R26,R19
000887 e0b0      	LDI  R27,0
000888 9508      	RET
                 
                 ;OPTIMIZER ADDED SUBROUTINE, CALLED 9 TIMES, CODE SIZE REDUCTION:6 WORDS
                 SUBOPT_0x1F:
000889 2fe3      	MOV  R30,R19
00088a e0f0      	LDI  R31,0
00088b 9508      	RET
                 
                 ;OPTIMIZER ADDED SUBROUTINE, CALLED 46 TIMES, CODE SIZE REDUCTION:43 WORDS
                 SUBOPT_0x20:
00088c 93fa      	ST   -Y,R31
00088d 93ea      	ST   -Y,R30
00088e 9508      	RET
                 
                 ;OPTIMIZER ADDED SUBROUTINE, CALLED 19 TIMES, CODE SIZE REDUCTION:34 WORDS
                 SUBOPT_0x21:
00088f e080      	LDI  R24,0
000890 ded8      	RCALL _printf
000891 9622      	ADIW R28,2
000892 9508      	RET
                 
                 ;OPTIMIZER ADDED SUBROUTINE, CALLED 4 TIMES, CODE SIZE REDUCTION:1 WORDS
                 SUBOPT_0x22:
000893 5daf      	SUBI R26,LOW(-_lastNumber)
000894 4fbf      	SBCI R27,HIGH(-_lastNumber)
000895 9508      	RET
                 
                 ;OPTIMIZER ADDED SUBROUTINE, CALLED 9 TIMES, CODE SIZE REDUCTION:14 WORDS
                 SUBOPT_0x23:
000896 eee7      	LDI  R30,LOW(_msgStr)
000897 e0f2      	LDI  R31,HIGH(_msgStr)
000898 cff3      	RJMP SUBOPT_0x20
                 
                 ;OPTIMIZER ADDED SUBROUTINE, CALLED 18 TIMES, CODE SIZE REDUCTION:15 WORDS
                 SUBOPT_0x24:
000899 dff2      	RCALL SUBOPT_0x20
00089a cff4      	RJMP SUBOPT_0x21
                 
                 ;OPTIMIZER ADDED SUBROUTINE, CALLED 4 TIMES, CODE SIZE REDUCTION:7 WORDS
                 SUBOPT_0x25:
00089b d97f      	RCALL _clearBuffer
00089c 2444      	CLR  R4
00089d 94e8      	CLT
00089e f821      	BLD  R2,1
00089f 9508      	RET
                 
                 ;OPTIMIZER ADDED SUBROUTINE, CALLED 4 TIMES, CODE SIZE REDUCTION:4 WORDS
                 SUBOPT_0x26:
0008a0 0fae      	ADD  R26,R30
0008a1 1fbf      	ADC  R27,R31
0008a2 e0e0      	LDI  R30,LOW(0)
0008a3 9508      	RET
                 
                 ;OPTIMIZER ADDED SUBROUTINE, CALLED 7 TIMES, CODE SIZE REDUCTION:4 WORDS
                 SUBOPT_0x27:
0008a4 0fea      	ADD  R30,R26
0008a5 1ffb      	ADC  R31,R27
0008a6 9508      	RET
                 
                 ;OPTIMIZER ADDED SUBROUTINE, CALLED 4 TIMES, CODE SIZE REDUCTION:1 WORDS
                 SUBOPT_0x28:
0008a7 d0a7      	RCALL __EEPROMRDB
0008a8 01d0      	MOVW R26,R0
0008a9 9508      	RET
                 
                 ;OPTIMIZER ADDED SUBROUTINE, CALLED 12 TIMES, CODE SIZE REDUCTION:9 WORDS
                 SUBOPT_0x29:
0008aa 2fa1      	MOV  R26,R17
0008ab e0b0      	LDI  R27,0
0008ac 9508      	RET
                 
                 ;OPTIMIZER ADDED SUBROUTINE, CALLED 4 TIMES, CODE SIZE REDUCTION:1 WORDS
                 SUBOPT_0x2A:
0008ad 50a0      	SUBI R26,LOW(-_sdt1)
0008ae 40b0      	SBCI R27,HIGH(-_sdt1)
0008af 9508      	RET
                 
                 ;OPTIMIZER ADDED SUBROUTINE, CALLED 4 TIMES, CODE SIZE REDUCTION:1 WORDS
                 SUBOPT_0x2B:
0008b0 d09e      	RCALL __EEPROMRDB
0008b1 3fef      	CPI  R30,LOW(0xFF)
0008b2 9508      	RET
                 
                 ;OPTIMIZER ADDED SUBROUTINE, CALLED 4 TIMES, CODE SIZE REDUCTION:1 WORDS
                 SUBOPT_0x2C:
0008b3 5fa5      	SUBI R26,LOW(-_sdt2)
0008b4 4fbf      	SBCI R27,HIGH(-_sdt2)
0008b5 9508      	RET
                 
                 ;OPTIMIZER ADDED SUBROUTINE, CALLED 4 TIMES, CODE SIZE REDUCTION:1 WORDS
                 SUBOPT_0x2D:
0008b6 5eaa      	SUBI R26,LOW(-_sdt3)
0008b7 4fbf      	SBCI R27,HIGH(-_sdt3)
0008b8 9508      	RET
                 
                 ;OPTIMIZER ADDED SUBROUTINE, CALLED 3 TIMES, CODE SIZE REDUCTION:2 WORDS
                 SUBOPT_0x2E:
                +
0008b9 e9ef     +LDI R30 , LOW ( 2 * _0x0 + ( 91 ) )
0008ba e0f0     +LDI R31 , HIGH ( 2 * _0x0 + ( 91 ) )
                 	__POINTW1FN _0x0,91
0008bb cfdd      	RJMP SUBOPT_0x24
                 
                 ;OPTIMIZER ADDED SUBROUTINE, CALLED 2 TIMES, CODE SIZE REDUCTION:1 WORDS
                 SUBOPT_0x2F:
0008bc 94e8      	CLT
0008bd f820      	BLD  R2,0
0008be 2466      	CLR  R6
0008bf 2444      	CLR  R4
0008c0 9508      	RET
                 
                 ;OPTIMIZER ADDED SUBROUTINE, CALLED 3 TIMES, CODE SIZE REDUCTION:2 WORDS
                 SUBOPT_0x30:
0008c1 df4c      	RCALL SUBOPT_0x1
0008c2 d08c      	RCALL __EEPROMRDB
0008c3 30e1      	CPI  R30,LOW(0x1)
0008c4 9508      	RET
                 
                 ;OPTIMIZER ADDED SUBROUTINE, CALLED 4 TIMES, CODE SIZE REDUCTION:4 WORDS
                 SUBOPT_0x31:
0008c5 df4b      	RCALL SUBOPT_0x2
0008c6 d088      	RCALL __EEPROMRDB
0008c7 30e1      	CPI  R30,LOW(0x1)
0008c8 9508      	RET
                 
                 ;OPTIMIZER ADDED SUBROUTINE, CALLED 2 TIMES, CODE SIZE REDUCTION:1 WORDS
                 SUBOPT_0x32:
0008c9 98a9      	CBI  0x15,1
0008ca df46      	RCALL SUBOPT_0x2
0008cb e0e0      	LDI  R30,LOW(0)
0008cc d08e      	RCALL __EEPROMWRB
0008cd 9508      	RET
                 
                 ;OPTIMIZER ADDED SUBROUTINE, CALLED 8 TIMES, CODE SIZE REDUCTION:19 WORDS
                 SUBOPT_0x33:
0008ce e2af      	LDI  R26,LOW(_tb)
0008cf e0b0      	LDI  R27,HIGH(_tb)
0008d0 d07e      	RCALL __EEPROMRDB
0008d1 30e1      	CPI  R30,LOW(0x1)
0008d2 9508      	RET
                 
                 ;OPTIMIZER ADDED SUBROUTINE, CALLED 2 TIMES, CODE SIZE REDUCTION:1 WORDS
                 SUBOPT_0x34:
0008d3 9aa9      	SBI  0x15,1
0008d4 df3c      	RCALL SUBOPT_0x2
0008d5 e0e1      	LDI  R30,LOW(1)
0008d6 d084      	RCALL __EEPROMWRB
0008d7 9508      	RET
                 
                 ;OPTIMIZER ADDED SUBROUTINE, CALLED 5 TIMES, CODE SIZE REDUCTION:2 WORDS
                 SUBOPT_0x35:
0008d8 e3e0      	LDI  R30,LOW(48)
0008d9 d081      	RCALL __EEPROMWRB
0008da 9508      	RET
                 
                 ;OPTIMIZER ADDED SUBROUTINE, CALLED 10 TIMES, CODE SIZE REDUCTION:16 WORDS
                 SUBOPT_0x36:
0008db ebea      	LDI  R30,LOW(_content)
0008dc e0f2      	LDI  R31,HIGH(_content)
0008dd cfae      	RJMP SUBOPT_0x20
                 
                 ;OPTIMIZER ADDED SUBROUTINE, CALLED 4 TIMES, CODE SIZE REDUCTION:1 WORDS
                 SUBOPT_0x37:
0008de e0e1      	LDI  R30,LOW(1)
0008df d07b      	RCALL __EEPROMWRB
0008e0 9508      	RET
                 
                 ;OPTIMIZER ADDED SUBROUTINE, CALLED 4 TIMES, CODE SIZE REDUCTION:1 WORDS
                 SUBOPT_0x38:
0008e1 e0e0      	LDI  R30,LOW(0)
0008e2 d078      	RCALL __EEPROMWRB
0008e3 9508      	RET
                 
                 ;OPTIMIZER ADDED SUBROUTINE, CALLED 5 TIMES, CODE SIZE REDUCTION:6 WORDS
                 SUBOPT_0x39:
0008e4 ece9      	LDI  R30,LOW(_syntax)
0008e5 e0f2      	LDI  R31,HIGH(_syntax)
0008e6 cfa5      	RJMP SUBOPT_0x20
                 
                 ;OPTIMIZER ADDED SUBROUTINE, CALLED 6 TIMES, CODE SIZE REDUCTION:3 WORDS
                 SUBOPT_0x3A:
                +
0008e7 50ef     +SUBI R30 , LOW ( - _msgStr - ( 10 ) )
0008e8 4ffd     +SBCI R31 , HIGH ( - _msgStr - ( 10 ) )
                 	__ADDW1MN _msgStr,10
0008e9 9508      	RET
                 
                 ;OPTIMIZER ADDED SUBROUTINE, CALLED 2 TIMES, CODE SIZE REDUCTION:1 WORDS
                 SUBOPT_0x3B:
0008ea 01de      	MOVW R26,R28
0008eb 0fae      	ADD  R26,R30
0008ec 1fbf      	ADC  R27,R31
0008ed 9508      	RET
                 
                 ;OPTIMIZER ADDED SUBROUTINE, CALLED 4 TIMES, CODE SIZE REDUCTION:1 WORDS
                 SUBOPT_0x3C:
0008ee def2      	RCALL _strpos
0008ef 23ff      	TST  R31
0008f0 9508      	RET
                 
                 ;OPTIMIZER ADDED SUBROUTINE, CALLED 5 TIMES, CODE SIZE REDUCTION:2 WORDS
                 SUBOPT_0x3D:
0008f1 eca8      	LDI  R26,LOW(200)
0008f2 cf21      	RJMP SUBOPT_0x3
                 
                 ;OPTIMIZER ADDED SUBROUTINE, CALLED 6 TIMES, CODE SIZE REDUCTION:3 WORDS
                 SUBOPT_0x3E:
0008f3 93ba      	ST   -Y,R27
0008f4 93aa      	ST   -Y,R26
0008f5 9508      	RET
                 
                 ;OPTIMIZER ADDED SUBROUTINE, CALLED 5 TIMES, CODE SIZE REDUCTION:2 WORDS
                 SUBOPT_0x3F:
0008f6 81a9      	LDD  R26,Y+1
0008f7 81ba      	LDD  R27,Y+1+1
0008f8 9508      	RET
                 
                 ;OPTIMIZER ADDED SUBROUTINE, CALLED 2 TIMES, CODE SIZE REDUCTION:1 WORDS
                 SUBOPT_0x40:
0008f9 9731      	SBIW R30,1
0008fa 91e4      	LPM  R30,Z
0008fb 2f3e      	MOV  R19,R30
0008fc 30e0      	CPI  R30,0
0008fd 9508      	RET
                 
                 ;OPTIMIZER ADDED SUBROUTINE, CALLED 5 TIMES, CODE SIZE REDUCTION:18 WORDS
                 SUBOPT_0x41:
0008fe 933a      	ST   -Y,R19
0008ff 85ab      	LDD  R26,Y+11
000900 85bc      	LDD  R27,Y+11+1
000901 85ed      	LDD  R30,Y+13
000902 85fe      	LDD  R31,Y+13+1
000903 9509      	ICALL
000904 9508      	RET
                 
                 ;OPTIMIZER ADDED SUBROUTINE, CALLED 6 TIMES, CODE SIZE REDUCTION:3 WORDS
                 SUBOPT_0x42:
000905 85ee      	LDD  R30,Y+14
000906 85ff      	LDD  R31,Y+14+1
000907 9508      	RET
                 
                 ;OPTIMIZER ADDED SUBROUTINE, CALLED 5 TIMES, CODE SIZE REDUCTION:6 WORDS
                 SUBOPT_0x43:
000908 9734      	SBIW R30,4
000909 87ee      	STD  Y+14,R30
00090a 87ff      	STD  Y+14+1,R31
00090b 9508      	RET
                 
                 ;OPTIMIZER ADDED SUBROUTINE, CALLED 2 TIMES, CODE SIZE REDUCTION:2 WORDS
                 SUBOPT_0x44:
00090c 85ab      	LDD  R26,Y+11
00090d 85bc      	LDD  R27,Y+11+1
00090e 85ed      	LDD  R30,Y+13
00090f 85fe      	LDD  R31,Y+13+1
000910 9509      	ICALL
000911 9508      	RET
                 
                 ;OPTIMIZER ADDED SUBROUTINE, CALLED 4 TIMES, CODE SIZE REDUCTION:1 WORDS
                 SUBOPT_0x45:
000912 dff2      	RCALL SUBOPT_0x42
000913 cff4      	RJMP SUBOPT_0x43
                 
                 ;OPTIMIZER ADDED SUBROUTINE, CALLED 2 TIMES, CODE SIZE REDUCTION:3 WORDS
                 SUBOPT_0x46:
000914 85ae      	LDD  R26,Y+14
000915 85bf      	LDD  R27,Y+14+1
000916 9614      	ADIW R26,4
000917 d028      	RCALL __GETW1P
000918 83ee      	STD  Y+6,R30
000919 83ff      	STD  Y+6+1,R31
00091a 9508      	RET
                 
                 ;OPTIMIZER ADDED SUBROUTINE, CALLED 2 TIMES, CODE SIZE REDUCTION:2 WORDS
                 SUBOPT_0x47:
00091b 85ae      	LDD  R26,Y+14
00091c 85bf      	LDD  R27,Y+14+1
00091d 9614      	ADIW R26,4
00091e 914d      	LD   R20,X+
00091f 915c      	LD   R21,X
000920 9508      	RET
                 
                 ;OPTIMIZER ADDED SUBROUTINE, CALLED 3 TIMES, CODE SIZE REDUCTION:8 WORDS
                 SUBOPT_0x48:
000921 81ab      	LDD  R26,Y+3
000922 81bc      	LDD  R27,Y+3+1
000923 27ee      	CLR  R30
000924 0fa1      	ADD  R26,R17
000925 1fbe      	ADC  R27,R30
000926 91ac      	LD   R26,X
000927 9508      	RET
                 
                 ;OPTIMIZER ADDED SUBROUTINE, CALLED 3 TIMES, CODE SIZE REDUCTION:6 WORDS
                 SUBOPT_0x49:
000928 dfcd      	RCALL SUBOPT_0x3F
000929 27ee      	CLR  R30
00092a 0fa1      	ADD  R26,R17
00092b 1fbe      	ADC  R27,R30
00092c 91ac      	LD   R26,X
00092d 9508      	RET
                 
                 
                 	.CSEG
                 _delay_ms:
00092e 9610      	adiw r26,0
00092f f039      	breq __delay_ms1
                 __delay_ms0:
                +
000930 ef8a     +LDI R24 , LOW ( 0xFA )
000931 e090     +LDI R25 , HIGH ( 0xFA )
                +__DELAY_USW_LOOP :
000932 9701     +SBIW R24 , 1
000933 f7f1     +BRNE __DELAY_USW_LOOP
                 	__DELAY_USW 0xFA
000934 95a8      	wdr
000935 9711      	sbiw r26,1
000936 f7c9      	brne __delay_ms0
                 __delay_ms1:
000937 9508      	ret
                 
                 __ADDW2R15:
000938 2400      	CLR  R0
000939 0daf      	ADD  R26,R15
00093a 1db0      	ADC  R27,R0
00093b 9508      	RET
                 
                 __ANEGW1:
00093c 95f1      	NEG  R31
00093d 95e1      	NEG  R30
00093e 40f0      	SBCI R31,0
00093f 9508      	RET
                 
                 __GETW1P:
000940 91ed      	LD   R30,X+
000941 91fc      	LD   R31,X
000942 9711      	SBIW R26,1
000943 9508      	RET
                 
                 __GETW1PF:
000944 9005      	LPM  R0,Z+
000945 91f4      	LPM  R31,Z
000946 2de0      	MOV  R30,R0
000947 9508      	RET
                 
                 __SWAPW12:
000948 2e1b      	MOV  R1,R27
000949 2fbf      	MOV  R27,R31
00094a 2df1      	MOV  R31,R1
                 
                 __SWAPB12:
00094b 2e1a      	MOV  R1,R26
00094c 2fae      	MOV  R26,R30
00094d 2de1      	MOV  R30,R1
00094e 9508      	RET
                 
                 __EEPROMRDB:
00094f 99e1      	SBIC EECR,EEWE
000950 cffe      	RJMP __EEPROMRDB
000951 93ff      	PUSH R31
000952 b7ff      	IN   R31,SREG
000953 94f8      	CLI
000954 bbae      	OUT  EEARL,R26
000955 bbbf      	OUT  EEARH,R27
000956 9ae0      	SBI  EECR,EERE
000957 b3ed      	IN   R30,EEDR
000958 bfff      	OUT  SREG,R31
000959 91ff      	POP  R31
00095a 9508      	RET
                 
                 __EEPROMWRB:
00095b 9be1      	SBIS EECR,EEWE
00095c c002      	RJMP __EEPROMWRB1
00095d 95a8      	WDR
00095e cffc      	RJMP __EEPROMWRB
                 __EEPROMWRB1:
00095f b79f      	IN   R25,SREG
000960 94f8      	CLI
000961 bbae      	OUT  EEARL,R26
000962 bbbf      	OUT  EEARH,R27
000963 9ae0      	SBI  EECR,EERE
000964 b38d      	IN   R24,EEDR
000965 17e8      	CP   R30,R24
000966 f019      	BREQ __EEPROMWRB0
000967 bbed      	OUT  EEDR,R30
000968 9ae2      	SBI  EECR,EEMWE
000969 9ae1      	SBI  EECR,EEWE
                 __EEPROMWRB0:
00096a bf9f      	OUT  SREG,R25
00096b 9508      	RET
                 
                 __CPW01:
00096c 2400      	CLR  R0
00096d 160e      	CP   R0,R30
00096e 060f      	CPC  R0,R31
00096f 9508      	RET
                 
                 __SAVELOCR6:
000970 935a      	ST   -Y,R21
                 __SAVELOCR5:
000971 934a      	ST   -Y,R20
                 __SAVELOCR4:
000972 933a      	ST   -Y,R19
                 __SAVELOCR3:
000973 932a      	ST   -Y,R18
                 __SAVELOCR2:
000974 931a      	ST   -Y,R17
000975 930a      	ST   -Y,R16
000976 9508      	RET
                 
                 __LOADLOCR6:
000977 815d      	LDD  R21,Y+5
                 __LOADLOCR5:
000978 814c      	LDD  R20,Y+4
                 __LOADLOCR4:
000979 813b      	LDD  R19,Y+3
                 __LOADLOCR3:
00097a 812a      	LDD  R18,Y+2
                 __LOADLOCR2:
00097b 8119      	LDD  R17,Y+1
00097c 8108      	LD   R16,Y
00097d 9508      	RET
                 
                 ;END OF CODE MARKER
                 __END_OF_CODE:


RESOURCE USE INFORMATION
------------------------

Notice:
The register and instruction counts are symbol table hit counts,
and hence implicitly used resources are not counted, eg, the
'lpm' instruction without operands implicitly uses r0 and z,
none of which are counted.

x,y,z are separate entities in the symbol table and are
counted separately from r26..r31 here.

.dseg memory usage only counts static data declared with .byte

ATmega8 register use summary:
r0 :  23 r1 :   7 r2 :  10 r3 :   0 r4 :   7 r5 :   2 r6 :   6 r7 :   6 
r8 :   0 r9 :   6 r10:   4 r11:   3 r12:   5 r13:   4 r14:   0 r15:   6 
r16:  31 r17:  64 r18:  15 r19:  32 r20:  17 r21:  12 r22:  14 r23:  11 
r24:  20 r25:   8 r26: 257 r27: 129 r28:  36 r29:   1 r30: 354 r31: 114 
x  :  33 y  : 157 z  :  29 
Registers used: 32 out of 35 (91.4%)

ATmega8 instruction use summary:
.lds  :   0 .lds.l:   0 .sts  :   0 .sts.l:   0 adc   :   7 add   :   7 
adiw  :  38 and   :   0 andi  :   1 asr   :   0 bclr  :   0 bld   :   7 
brbc  :   0 brbs  :   0 brcc  :   1 brcs  :   0 break :   0 breq  :  37 
brge  :   9 brhc  :   0 brhs  :   0 brid  :   0 brie  :   0 brlo  :  27 
brlt  :   3 brmi  :   2 brne  :  81 brpl  :   3 brsh  :  19 brtc  :   0 
brts  :   0 brvc  :   0 brvs  :   0 bset  :   0 bst   :   0 cbi   :   9 
cbr   :   0 clc   :   0 clh   :   0 cli   :   4 cln   :   0 clr   :  30 
cls   :   0 clt   :   4 clv   :   0 clz   :   0 com   :   2 cp    :  29 
cpc   :   6 cpi   :  65 cpse  :   0 dec   :   2 des   :   0 eor   :   0 
fmul  :   0 fmuls :   0 fmulsu:   0 icall :   2 ijmp  :   0 in    :   9 
inc   :   5 ld    :  62 ldd   :  53 ldi   : 332 lds   :  14 lpm   :  12 
lsl   :   0 lsr   :   0 mov   :  51 movw  :  42 mul   :   0 muls  :   0 
mulsu :   0 neg   :   2 nop   :   0 or    :   0 ori   :   5 out   :  34 
pop   :  10 push  :  10 rcall : 518 ret   :  96 reti  :   2 rjmp  : 158 
rol   :   0 ror   :   0 sbc   :   4 sbci  :  25 sbi   :  13 sbic  :   2 
sbis  :   3 sbiw  :  18 sbr   :   0 sbrc  :   3 sbrs  :   3 sec   :   0 
seh   :   0 sei   :   2 sen   :   0 ser   :   0 ses   :   0 set   :   3 
sev   :   0 sez   :   0 sleep :   0 spm   :   0 st    :  69 std   :  25 
sts   :   1 sub   :   6 subi  :  55 swap  :   0 tst   :  10 wdr   :   2 

Instructions used: 59 out of 114 (51.8%)

ATmega8 memory use summary [bytes]:
Segment   Begin    End      Code   Data   Used    Size   Use%
---------------------------------------------------------------
[.cseg] 0x000000 0x0012fc   4134    726   4860    8192  59.3%
[.dseg] 0x000060 0x0003ba      0    602    602    1024  58.8%
[.eseg] 0x000000 0x000034      0     52     52     512  10.2%

Assembly complete, 0 errors, 11 warnings
